
GeoTel.elf:     file format elf32-littlearm

Sections:
Idx Name          Size      VMA       LMA       File off  Algn
  0 .isr_vector   00000194  08000000  08000000  00001000  2**0
                  CONTENTS, ALLOC, LOAD, READONLY, DATA
  1 .text         00003e74  080001a0  080001a0  000011a0  2**4
                  CONTENTS, ALLOC, LOAD, READONLY, CODE
  2 .rodata       00000390  08004014  08004014  00005014  2**2
                  CONTENTS, ALLOC, LOAD, READONLY, DATA
  3 .ARM.extab    00000000  080043a4  080043a4  00006050  2**0
                  CONTENTS
  4 .ARM          00000008  080043a4  080043a4  000053a4  2**2
                  CONTENTS, ALLOC, LOAD, READONLY, DATA
  5 .preinit_array 00000000  080043ac  080043ac  00006050  2**0
                  CONTENTS, ALLOC, LOAD, DATA
  6 .init_array   00000004  080043ac  080043ac  000053ac  2**2
                  CONTENTS, ALLOC, LOAD, READONLY, DATA
  7 .fini_array   00000004  080043b0  080043b0  000053b0  2**2
                  CONTENTS, ALLOC, LOAD, READONLY, DATA
  8 .data         00000050  20000000  080043b4  00006000  2**2
                  CONTENTS, ALLOC, LOAD, DATA
  9 .sram2        00000000  10000000  10000000  00006050  2**0
                  CONTENTS
 10 .bss          00000324  20000050  20000050  00006050  2**2
                  ALLOC
 11 ._user_heap_stack 00000604  20000374  20000374  00006050  2**0
                  ALLOC
 12 .ARM.attributes 00000030  00000000  00000000  00006050  2**0
                  CONTENTS, READONLY
 13 .debug_info   000038a8  00000000  00000000  00006080  2**0
                  CONTENTS, READONLY, DEBUGGING, OCTETS
 14 .debug_abbrev 00000c04  00000000  00000000  00009928  2**0
                  CONTENTS, READONLY, DEBUGGING, OCTETS
 15 .debug_aranges 00000438  00000000  00000000  0000a530  2**3
                  CONTENTS, READONLY, DEBUGGING, OCTETS
 16 .debug_rnglists 00000323  00000000  00000000  0000a968  2**0
                  CONTENTS, READONLY, DEBUGGING, OCTETS
 17 .debug_macro  0001941b  00000000  00000000  0000ac8b  2**0
                  CONTENTS, READONLY, DEBUGGING, OCTETS
 18 .debug_line   00003d05  00000000  00000000  000240a6  2**0
                  CONTENTS, READONLY, DEBUGGING, OCTETS
 19 .debug_str    0008b2d6  00000000  00000000  00027dab  2**0
                  CONTENTS, READONLY, DEBUGGING, OCTETS
 20 .comment      00000043  00000000  00000000  000b3081  2**0
                  CONTENTS, READONLY
 21 .debug_frame  000014a4  00000000  00000000  000b30c4  2**2
                  CONTENTS, READONLY, DEBUGGING, OCTETS
 22 .debug_line_str 0000005b  00000000  00000000  000b4568  2**0
                  CONTENTS, READONLY, DEBUGGING, OCTETS

Disassembly of section .text:

080001a0 <__do_global_dtors_aux>:
 80001a0:	b510      	push	{r4, lr}
 80001a2:	4c05      	ldr	r4, [pc, #20]	@ (80001b8 <__do_global_dtors_aux+0x18>)
 80001a4:	7823      	ldrb	r3, [r4, #0]
 80001a6:	b933      	cbnz	r3, 80001b6 <__do_global_dtors_aux+0x16>
 80001a8:	4b04      	ldr	r3, [pc, #16]	@ (80001bc <__do_global_dtors_aux+0x1c>)
 80001aa:	b113      	cbz	r3, 80001b2 <__do_global_dtors_aux+0x12>
 80001ac:	4804      	ldr	r0, [pc, #16]	@ (80001c0 <__do_global_dtors_aux+0x20>)
 80001ae:	f3af 8000 	nop.w
 80001b2:	2301      	movs	r3, #1
 80001b4:	7023      	strb	r3, [r4, #0]
 80001b6:	bd10      	pop	{r4, pc}
 80001b8:	20000050 	.word	0x20000050
 80001bc:	00000000 	.word	0x00000000
 80001c0:	08003ffc 	.word	0x08003ffc

080001c4 <frame_dummy>:
 80001c4:	b508      	push	{r3, lr}
 80001c6:	4b03      	ldr	r3, [pc, #12]	@ (80001d4 <frame_dummy+0x10>)
 80001c8:	b11b      	cbz	r3, 80001d2 <frame_dummy+0xe>
 80001ca:	4903      	ldr	r1, [pc, #12]	@ (80001d8 <frame_dummy+0x14>)
 80001cc:	4803      	ldr	r0, [pc, #12]	@ (80001dc <frame_dummy+0x18>)
 80001ce:	f3af 8000 	nop.w
 80001d2:	bd08      	pop	{r3, pc}
 80001d4:	00000000 	.word	0x00000000
 80001d8:	20000054 	.word	0x20000054
 80001dc:	08003ffc 	.word	0x08003ffc

080001e0 <memchr>:
 80001e0:	f001 01ff 	and.w	r1, r1, #255	@ 0xff
 80001e4:	2a10      	cmp	r2, #16
 80001e6:	db2b      	blt.n	8000240 <memchr+0x60>
 80001e8:	f010 0f07 	tst.w	r0, #7
 80001ec:	d008      	beq.n	8000200 <memchr+0x20>
 80001ee:	f810 3b01 	ldrb.w	r3, [r0], #1
 80001f2:	3a01      	subs	r2, #1
 80001f4:	428b      	cmp	r3, r1
 80001f6:	d02d      	beq.n	8000254 <memchr+0x74>
 80001f8:	f010 0f07 	tst.w	r0, #7
 80001fc:	b342      	cbz	r2, 8000250 <memchr+0x70>
 80001fe:	d1f6      	bne.n	80001ee <memchr+0xe>
 8000200:	b4f0      	push	{r4, r5, r6, r7}
 8000202:	ea41 2101 	orr.w	r1, r1, r1, lsl #8
 8000206:	ea41 4101 	orr.w	r1, r1, r1, lsl #16
 800020a:	f022 0407 	bic.w	r4, r2, #7
 800020e:	f07f 0700 	mvns.w	r7, #0
 8000212:	2300      	movs	r3, #0
 8000214:	e8f0 5602 	ldrd	r5, r6, [r0], #8
 8000218:	3c08      	subs	r4, #8
 800021a:	ea85 0501 	eor.w	r5, r5, r1
 800021e:	ea86 0601 	eor.w	r6, r6, r1
 8000222:	fa85 f547 	uadd8	r5, r5, r7
 8000226:	faa3 f587 	sel	r5, r3, r7
 800022a:	fa86 f647 	uadd8	r6, r6, r7
 800022e:	faa5 f687 	sel	r6, r5, r7
 8000232:	b98e      	cbnz	r6, 8000258 <memchr+0x78>
 8000234:	d1ee      	bne.n	8000214 <memchr+0x34>
 8000236:	bcf0      	pop	{r4, r5, r6, r7}
 8000238:	f001 01ff 	and.w	r1, r1, #255	@ 0xff
 800023c:	f002 0207 	and.w	r2, r2, #7
 8000240:	b132      	cbz	r2, 8000250 <memchr+0x70>
 8000242:	f810 3b01 	ldrb.w	r3, [r0], #1
 8000246:	3a01      	subs	r2, #1
 8000248:	ea83 0301 	eor.w	r3, r3, r1
 800024c:	b113      	cbz	r3, 8000254 <memchr+0x74>
 800024e:	d1f8      	bne.n	8000242 <memchr+0x62>
 8000250:	2000      	movs	r0, #0
 8000252:	4770      	bx	lr
 8000254:	3801      	subs	r0, #1
 8000256:	4770      	bx	lr
 8000258:	2d00      	cmp	r5, #0
 800025a:	bf06      	itte	eq
 800025c:	4635      	moveq	r5, r6
 800025e:	3803      	subeq	r0, #3
 8000260:	3807      	subne	r0, #7
 8000262:	f015 0f01 	tst.w	r5, #1
 8000266:	d107      	bne.n	8000278 <memchr+0x98>
 8000268:	3001      	adds	r0, #1
 800026a:	f415 7f80 	tst.w	r5, #256	@ 0x100
 800026e:	bf02      	ittt	eq
 8000270:	3001      	addeq	r0, #1
 8000272:	f415 3fc0 	tsteq.w	r5, #98304	@ 0x18000
 8000276:	3001      	addeq	r0, #1
 8000278:	bcf0      	pop	{r4, r5, r6, r7}
 800027a:	3801      	subs	r0, #1
 800027c:	4770      	bx	lr
 800027e:	bf00      	nop

08000280 <__aeabi_drsub>:
 8000280:	f081 4100 	eor.w	r1, r1, #2147483648	@ 0x80000000
 8000284:	e002      	b.n	800028c <__adddf3>
 8000286:	bf00      	nop

08000288 <__aeabi_dsub>:
 8000288:	f083 4300 	eor.w	r3, r3, #2147483648	@ 0x80000000

0800028c <__adddf3>:
 800028c:	b530      	push	{r4, r5, lr}
 800028e:	ea4f 0441 	mov.w	r4, r1, lsl #1
 8000292:	ea4f 0543 	mov.w	r5, r3, lsl #1
 8000296:	ea94 0f05 	teq	r4, r5
 800029a:	bf08      	it	eq
 800029c:	ea90 0f02 	teqeq	r0, r2
 80002a0:	bf1f      	itttt	ne
 80002a2:	ea54 0c00 	orrsne.w	ip, r4, r0
 80002a6:	ea55 0c02 	orrsne.w	ip, r5, r2
 80002aa:	ea7f 5c64 	mvnsne.w	ip, r4, asr #21
 80002ae:	ea7f 5c65 	mvnsne.w	ip, r5, asr #21
 80002b2:	f000 80e2 	beq.w	800047a <__adddf3+0x1ee>
 80002b6:	ea4f 5454 	mov.w	r4, r4, lsr #21
 80002ba:	ebd4 5555 	rsbs	r5, r4, r5, lsr #21
 80002be:	bfb8      	it	lt
 80002c0:	426d      	neglt	r5, r5
 80002c2:	dd0c      	ble.n	80002de <__adddf3+0x52>
 80002c4:	442c      	add	r4, r5
 80002c6:	ea80 0202 	eor.w	r2, r0, r2
 80002ca:	ea81 0303 	eor.w	r3, r1, r3
 80002ce:	ea82 0000 	eor.w	r0, r2, r0
 80002d2:	ea83 0101 	eor.w	r1, r3, r1
 80002d6:	ea80 0202 	eor.w	r2, r0, r2
 80002da:	ea81 0303 	eor.w	r3, r1, r3
 80002de:	2d36      	cmp	r5, #54	@ 0x36
 80002e0:	bf88      	it	hi
 80002e2:	bd30      	pophi	{r4, r5, pc}
 80002e4:	f011 4f00 	tst.w	r1, #2147483648	@ 0x80000000
 80002e8:	ea4f 3101 	mov.w	r1, r1, lsl #12
 80002ec:	f44f 1c80 	mov.w	ip, #1048576	@ 0x100000
 80002f0:	ea4c 3111 	orr.w	r1, ip, r1, lsr #12
 80002f4:	d002      	beq.n	80002fc <__adddf3+0x70>
 80002f6:	4240      	negs	r0, r0
 80002f8:	eb61 0141 	sbc.w	r1, r1, r1, lsl #1
 80002fc:	f013 4f00 	tst.w	r3, #2147483648	@ 0x80000000
 8000300:	ea4f 3303 	mov.w	r3, r3, lsl #12
 8000304:	ea4c 3313 	orr.w	r3, ip, r3, lsr #12
 8000308:	d002      	beq.n	8000310 <__adddf3+0x84>
 800030a:	4252      	negs	r2, r2
 800030c:	eb63 0343 	sbc.w	r3, r3, r3, lsl #1
 8000310:	ea94 0f05 	teq	r4, r5
 8000314:	f000 80a7 	beq.w	8000466 <__adddf3+0x1da>
 8000318:	f1a4 0401 	sub.w	r4, r4, #1
 800031c:	f1d5 0e20 	rsbs	lr, r5, #32
 8000320:	db0d      	blt.n	800033e <__adddf3+0xb2>
 8000322:	fa02 fc0e 	lsl.w	ip, r2, lr
 8000326:	fa22 f205 	lsr.w	r2, r2, r5
 800032a:	1880      	adds	r0, r0, r2
 800032c:	f141 0100 	adc.w	r1, r1, #0
 8000330:	fa03 f20e 	lsl.w	r2, r3, lr
 8000334:	1880      	adds	r0, r0, r2
 8000336:	fa43 f305 	asr.w	r3, r3, r5
 800033a:	4159      	adcs	r1, r3
 800033c:	e00e      	b.n	800035c <__adddf3+0xd0>
 800033e:	f1a5 0520 	sub.w	r5, r5, #32
 8000342:	f10e 0e20 	add.w	lr, lr, #32
 8000346:	2a01      	cmp	r2, #1
 8000348:	fa03 fc0e 	lsl.w	ip, r3, lr
 800034c:	bf28      	it	cs
 800034e:	f04c 0c02 	orrcs.w	ip, ip, #2
 8000352:	fa43 f305 	asr.w	r3, r3, r5
 8000356:	18c0      	adds	r0, r0, r3
 8000358:	eb51 71e3 	adcs.w	r1, r1, r3, asr #31
 800035c:	f001 4500 	and.w	r5, r1, #2147483648	@ 0x80000000
 8000360:	d507      	bpl.n	8000372 <__adddf3+0xe6>
 8000362:	f04f 0e00 	mov.w	lr, #0
 8000366:	f1dc 0c00 	rsbs	ip, ip, #0
 800036a:	eb7e 0000 	sbcs.w	r0, lr, r0
 800036e:	eb6e 0101 	sbc.w	r1, lr, r1
 8000372:	f5b1 1f80 	cmp.w	r1, #1048576	@ 0x100000
 8000376:	d31b      	bcc.n	80003b0 <__adddf3+0x124>
 8000378:	f5b1 1f00 	cmp.w	r1, #2097152	@ 0x200000
 800037c:	d30c      	bcc.n	8000398 <__adddf3+0x10c>
 800037e:	0849      	lsrs	r1, r1, #1
 8000380:	ea5f 0030 	movs.w	r0, r0, rrx
 8000384:	ea4f 0c3c 	mov.w	ip, ip, rrx
 8000388:	f104 0401 	add.w	r4, r4, #1
 800038c:	ea4f 5244 	mov.w	r2, r4, lsl #21
 8000390:	f512 0f80 	cmn.w	r2, #4194304	@ 0x400000
 8000394:	f080 809a 	bcs.w	80004cc <__adddf3+0x240>
 8000398:	f1bc 4f00 	cmp.w	ip, #2147483648	@ 0x80000000
 800039c:	bf08      	it	eq
 800039e:	ea5f 0c50 	movseq.w	ip, r0, lsr #1
 80003a2:	f150 0000 	adcs.w	r0, r0, #0
 80003a6:	eb41 5104 	adc.w	r1, r1, r4, lsl #20
 80003aa:	ea41 0105 	orr.w	r1, r1, r5
 80003ae:	bd30      	pop	{r4, r5, pc}
 80003b0:	ea5f 0c4c 	movs.w	ip, ip, lsl #1
 80003b4:	4140      	adcs	r0, r0
 80003b6:	eb41 0101 	adc.w	r1, r1, r1
 80003ba:	3c01      	subs	r4, #1
 80003bc:	bf28      	it	cs
 80003be:	f5b1 1f80 	cmpcs.w	r1, #1048576	@ 0x100000
 80003c2:	d2e9      	bcs.n	8000398 <__adddf3+0x10c>
 80003c4:	f091 0f00 	teq	r1, #0
 80003c8:	bf04      	itt	eq
 80003ca:	4601      	moveq	r1, r0
 80003cc:	2000      	moveq	r0, #0
 80003ce:	fab1 f381 	clz	r3, r1
 80003d2:	bf08      	it	eq
 80003d4:	3320      	addeq	r3, #32
 80003d6:	f1a3 030b 	sub.w	r3, r3, #11
 80003da:	f1b3 0220 	subs.w	r2, r3, #32
 80003de:	da0c      	bge.n	80003fa <__adddf3+0x16e>
 80003e0:	320c      	adds	r2, #12
 80003e2:	dd08      	ble.n	80003f6 <__adddf3+0x16a>
 80003e4:	f102 0c14 	add.w	ip, r2, #20
 80003e8:	f1c2 020c 	rsb	r2, r2, #12
 80003ec:	fa01 f00c 	lsl.w	r0, r1, ip
 80003f0:	fa21 f102 	lsr.w	r1, r1, r2
 80003f4:	e00c      	b.n	8000410 <__adddf3+0x184>
 80003f6:	f102 0214 	add.w	r2, r2, #20
 80003fa:	bfd8      	it	le
 80003fc:	f1c2 0c20 	rsble	ip, r2, #32
 8000400:	fa01 f102 	lsl.w	r1, r1, r2
 8000404:	fa20 fc0c 	lsr.w	ip, r0, ip
 8000408:	bfdc      	itt	le
 800040a:	ea41 010c 	orrle.w	r1, r1, ip
 800040e:	4090      	lslle	r0, r2
 8000410:	1ae4      	subs	r4, r4, r3
 8000412:	bfa2      	ittt	ge
 8000414:	eb01 5104 	addge.w	r1, r1, r4, lsl #20
 8000418:	4329      	orrge	r1, r5
 800041a:	bd30      	popge	{r4, r5, pc}
 800041c:	ea6f 0404 	mvn.w	r4, r4
 8000420:	3c1f      	subs	r4, #31
 8000422:	da1c      	bge.n	800045e <__adddf3+0x1d2>
 8000424:	340c      	adds	r4, #12
 8000426:	dc0e      	bgt.n	8000446 <__adddf3+0x1ba>
 8000428:	f104 0414 	add.w	r4, r4, #20
 800042c:	f1c4 0220 	rsb	r2, r4, #32
 8000430:	fa20 f004 	lsr.w	r0, r0, r4
 8000434:	fa01 f302 	lsl.w	r3, r1, r2
 8000438:	ea40 0003 	orr.w	r0, r0, r3
 800043c:	fa21 f304 	lsr.w	r3, r1, r4
 8000440:	ea45 0103 	orr.w	r1, r5, r3
 8000444:	bd30      	pop	{r4, r5, pc}
 8000446:	f1c4 040c 	rsb	r4, r4, #12
 800044a:	f1c4 0220 	rsb	r2, r4, #32
 800044e:	fa20 f002 	lsr.w	r0, r0, r2
 8000452:	fa01 f304 	lsl.w	r3, r1, r4
 8000456:	ea40 0003 	orr.w	r0, r0, r3
 800045a:	4629      	mov	r1, r5
 800045c:	bd30      	pop	{r4, r5, pc}
 800045e:	fa21 f004 	lsr.w	r0, r1, r4
 8000462:	4629      	mov	r1, r5
 8000464:	bd30      	pop	{r4, r5, pc}
 8000466:	f094 0f00 	teq	r4, #0
 800046a:	f483 1380 	eor.w	r3, r3, #1048576	@ 0x100000
 800046e:	bf06      	itte	eq
 8000470:	f481 1180 	eoreq.w	r1, r1, #1048576	@ 0x100000
 8000474:	3401      	addeq	r4, #1
 8000476:	3d01      	subne	r5, #1
 8000478:	e74e      	b.n	8000318 <__adddf3+0x8c>
 800047a:	ea7f 5c64 	mvns.w	ip, r4, asr #21
 800047e:	bf18      	it	ne
 8000480:	ea7f 5c65 	mvnsne.w	ip, r5, asr #21
 8000484:	d029      	beq.n	80004da <__adddf3+0x24e>
 8000486:	ea94 0f05 	teq	r4, r5
 800048a:	bf08      	it	eq
 800048c:	ea90 0f02 	teqeq	r0, r2
 8000490:	d005      	beq.n	800049e <__adddf3+0x212>
 8000492:	ea54 0c00 	orrs.w	ip, r4, r0
 8000496:	bf04      	itt	eq
 8000498:	4619      	moveq	r1, r3
 800049a:	4610      	moveq	r0, r2
 800049c:	bd30      	pop	{r4, r5, pc}
 800049e:	ea91 0f03 	teq	r1, r3
 80004a2:	bf1e      	ittt	ne
 80004a4:	2100      	movne	r1, #0
 80004a6:	2000      	movne	r0, #0
 80004a8:	bd30      	popne	{r4, r5, pc}
 80004aa:	ea5f 5c54 	movs.w	ip, r4, lsr #21
 80004ae:	d105      	bne.n	80004bc <__adddf3+0x230>
 80004b0:	0040      	lsls	r0, r0, #1
 80004b2:	4149      	adcs	r1, r1
 80004b4:	bf28      	it	cs
 80004b6:	f041 4100 	orrcs.w	r1, r1, #2147483648	@ 0x80000000
 80004ba:	bd30      	pop	{r4, r5, pc}
 80004bc:	f514 0480 	adds.w	r4, r4, #4194304	@ 0x400000
 80004c0:	bf3c      	itt	cc
 80004c2:	f501 1180 	addcc.w	r1, r1, #1048576	@ 0x100000
 80004c6:	bd30      	popcc	{r4, r5, pc}
 80004c8:	f001 4500 	and.w	r5, r1, #2147483648	@ 0x80000000
 80004cc:	f045 41fe 	orr.w	r1, r5, #2130706432	@ 0x7f000000
 80004d0:	f441 0170 	orr.w	r1, r1, #15728640	@ 0xf00000
 80004d4:	f04f 0000 	mov.w	r0, #0
 80004d8:	bd30      	pop	{r4, r5, pc}
 80004da:	ea7f 5c64 	mvns.w	ip, r4, asr #21
 80004de:	bf1a      	itte	ne
 80004e0:	4619      	movne	r1, r3
 80004e2:	4610      	movne	r0, r2
 80004e4:	ea7f 5c65 	mvnseq.w	ip, r5, asr #21
 80004e8:	bf1c      	itt	ne
 80004ea:	460b      	movne	r3, r1
 80004ec:	4602      	movne	r2, r0
 80004ee:	ea50 3401 	orrs.w	r4, r0, r1, lsl #12
 80004f2:	bf06      	itte	eq
 80004f4:	ea52 3503 	orrseq.w	r5, r2, r3, lsl #12
 80004f8:	ea91 0f03 	teqeq	r1, r3
 80004fc:	f441 2100 	orrne.w	r1, r1, #524288	@ 0x80000
 8000500:	bd30      	pop	{r4, r5, pc}
 8000502:	bf00      	nop

08000504 <__aeabi_ui2d>:
 8000504:	f090 0f00 	teq	r0, #0
 8000508:	bf04      	itt	eq
 800050a:	2100      	moveq	r1, #0
 800050c:	4770      	bxeq	lr
 800050e:	b530      	push	{r4, r5, lr}
 8000510:	f44f 6480 	mov.w	r4, #1024	@ 0x400
 8000514:	f104 0432 	add.w	r4, r4, #50	@ 0x32
 8000518:	f04f 0500 	mov.w	r5, #0
 800051c:	f04f 0100 	mov.w	r1, #0
 8000520:	e750      	b.n	80003c4 <__adddf3+0x138>
 8000522:	bf00      	nop

08000524 <__aeabi_i2d>:
 8000524:	f090 0f00 	teq	r0, #0
 8000528:	bf04      	itt	eq
 800052a:	2100      	moveq	r1, #0
 800052c:	4770      	bxeq	lr
 800052e:	b530      	push	{r4, r5, lr}
 8000530:	f44f 6480 	mov.w	r4, #1024	@ 0x400
 8000534:	f104 0432 	add.w	r4, r4, #50	@ 0x32
 8000538:	f010 4500 	ands.w	r5, r0, #2147483648	@ 0x80000000
 800053c:	bf48      	it	mi
 800053e:	4240      	negmi	r0, r0
 8000540:	f04f 0100 	mov.w	r1, #0
 8000544:	e73e      	b.n	80003c4 <__adddf3+0x138>
 8000546:	bf00      	nop

08000548 <__aeabi_f2d>:
 8000548:	0042      	lsls	r2, r0, #1
 800054a:	ea4f 01e2 	mov.w	r1, r2, asr #3
 800054e:	ea4f 0131 	mov.w	r1, r1, rrx
 8000552:	ea4f 7002 	mov.w	r0, r2, lsl #28
 8000556:	bf1f      	itttt	ne
 8000558:	f012 437f 	andsne.w	r3, r2, #4278190080	@ 0xff000000
 800055c:	f093 4f7f 	teqne	r3, #4278190080	@ 0xff000000
 8000560:	f081 5160 	eorne.w	r1, r1, #939524096	@ 0x38000000
 8000564:	4770      	bxne	lr
 8000566:	f032 427f 	bics.w	r2, r2, #4278190080	@ 0xff000000
 800056a:	bf08      	it	eq
 800056c:	4770      	bxeq	lr
 800056e:	f093 4f7f 	teq	r3, #4278190080	@ 0xff000000
 8000572:	bf04      	itt	eq
 8000574:	f441 2100 	orreq.w	r1, r1, #524288	@ 0x80000
 8000578:	4770      	bxeq	lr
 800057a:	b530      	push	{r4, r5, lr}
 800057c:	f44f 7460 	mov.w	r4, #896	@ 0x380
 8000580:	f001 4500 	and.w	r5, r1, #2147483648	@ 0x80000000
 8000584:	f021 4100 	bic.w	r1, r1, #2147483648	@ 0x80000000
 8000588:	e71c      	b.n	80003c4 <__adddf3+0x138>
 800058a:	bf00      	nop

0800058c <__aeabi_ul2d>:
 800058c:	ea50 0201 	orrs.w	r2, r0, r1
 8000590:	bf08      	it	eq
 8000592:	4770      	bxeq	lr
 8000594:	b530      	push	{r4, r5, lr}
 8000596:	f04f 0500 	mov.w	r5, #0
 800059a:	e00a      	b.n	80005b2 <__aeabi_l2d+0x16>

0800059c <__aeabi_l2d>:
 800059c:	ea50 0201 	orrs.w	r2, r0, r1
 80005a0:	bf08      	it	eq
 80005a2:	4770      	bxeq	lr
 80005a4:	b530      	push	{r4, r5, lr}
 80005a6:	f011 4500 	ands.w	r5, r1, #2147483648	@ 0x80000000
 80005aa:	d502      	bpl.n	80005b2 <__aeabi_l2d+0x16>
 80005ac:	4240      	negs	r0, r0
 80005ae:	eb61 0141 	sbc.w	r1, r1, r1, lsl #1
 80005b2:	f44f 6480 	mov.w	r4, #1024	@ 0x400
 80005b6:	f104 0432 	add.w	r4, r4, #50	@ 0x32
 80005ba:	ea5f 5c91 	movs.w	ip, r1, lsr #22
 80005be:	f43f aed8 	beq.w	8000372 <__adddf3+0xe6>
 80005c2:	f04f 0203 	mov.w	r2, #3
 80005c6:	ea5f 0cdc 	movs.w	ip, ip, lsr #3
 80005ca:	bf18      	it	ne
 80005cc:	3203      	addne	r2, #3
 80005ce:	ea5f 0cdc 	movs.w	ip, ip, lsr #3
 80005d2:	bf18      	it	ne
 80005d4:	3203      	addne	r2, #3
 80005d6:	eb02 02dc 	add.w	r2, r2, ip, lsr #3
 80005da:	f1c2 0320 	rsb	r3, r2, #32
 80005de:	fa00 fc03 	lsl.w	ip, r0, r3
 80005e2:	fa20 f002 	lsr.w	r0, r0, r2
 80005e6:	fa01 fe03 	lsl.w	lr, r1, r3
 80005ea:	ea40 000e 	orr.w	r0, r0, lr
 80005ee:	fa21 f102 	lsr.w	r1, r1, r2
 80005f2:	4414      	add	r4, r2
 80005f4:	e6bd      	b.n	8000372 <__adddf3+0xe6>
 80005f6:	bf00      	nop

080005f8 <__aeabi_dmul>:
 80005f8:	b570      	push	{r4, r5, r6, lr}
 80005fa:	f04f 0cff 	mov.w	ip, #255	@ 0xff
 80005fe:	f44c 6ce0 	orr.w	ip, ip, #1792	@ 0x700
 8000602:	ea1c 5411 	ands.w	r4, ip, r1, lsr #20
 8000606:	bf1d      	ittte	ne
 8000608:	ea1c 5513 	andsne.w	r5, ip, r3, lsr #20
 800060c:	ea94 0f0c 	teqne	r4, ip
 8000610:	ea95 0f0c 	teqne	r5, ip
 8000614:	f000 f8de 	bleq	80007d4 <__aeabi_dmul+0x1dc>
 8000618:	442c      	add	r4, r5
 800061a:	ea81 0603 	eor.w	r6, r1, r3
 800061e:	ea21 514c 	bic.w	r1, r1, ip, lsl #21
 8000622:	ea23 534c 	bic.w	r3, r3, ip, lsl #21
 8000626:	ea50 3501 	orrs.w	r5, r0, r1, lsl #12
 800062a:	bf18      	it	ne
 800062c:	ea52 3503 	orrsne.w	r5, r2, r3, lsl #12
 8000630:	f441 1180 	orr.w	r1, r1, #1048576	@ 0x100000
 8000634:	f443 1380 	orr.w	r3, r3, #1048576	@ 0x100000
 8000638:	d038      	beq.n	80006ac <__aeabi_dmul+0xb4>
 800063a:	fba0 ce02 	umull	ip, lr, r0, r2
 800063e:	f04f 0500 	mov.w	r5, #0
 8000642:	fbe1 e502 	umlal	lr, r5, r1, r2
 8000646:	f006 4200 	and.w	r2, r6, #2147483648	@ 0x80000000
 800064a:	fbe0 e503 	umlal	lr, r5, r0, r3
 800064e:	f04f 0600 	mov.w	r6, #0
 8000652:	fbe1 5603 	umlal	r5, r6, r1, r3
 8000656:	f09c 0f00 	teq	ip, #0
 800065a:	bf18      	it	ne
 800065c:	f04e 0e01 	orrne.w	lr, lr, #1
 8000660:	f1a4 04ff 	sub.w	r4, r4, #255	@ 0xff
 8000664:	f5b6 7f00 	cmp.w	r6, #512	@ 0x200
 8000668:	f564 7440 	sbc.w	r4, r4, #768	@ 0x300
 800066c:	d204      	bcs.n	8000678 <__aeabi_dmul+0x80>
 800066e:	ea5f 0e4e 	movs.w	lr, lr, lsl #1
 8000672:	416d      	adcs	r5, r5
 8000674:	eb46 0606 	adc.w	r6, r6, r6
 8000678:	ea42 21c6 	orr.w	r1, r2, r6, lsl #11
 800067c:	ea41 5155 	orr.w	r1, r1, r5, lsr #21
 8000680:	ea4f 20c5 	mov.w	r0, r5, lsl #11
 8000684:	ea40 505e 	orr.w	r0, r0, lr, lsr #21
 8000688:	ea4f 2ece 	mov.w	lr, lr, lsl #11
 800068c:	f1b4 0cfd 	subs.w	ip, r4, #253	@ 0xfd
 8000690:	bf88      	it	hi
 8000692:	f5bc 6fe0 	cmphi.w	ip, #1792	@ 0x700
 8000696:	d81e      	bhi.n	80006d6 <__aeabi_dmul+0xde>
 8000698:	f1be 4f00 	cmp.w	lr, #2147483648	@ 0x80000000
 800069c:	bf08      	it	eq
 800069e:	ea5f 0e50 	movseq.w	lr, r0, lsr #1
 80006a2:	f150 0000 	adcs.w	r0, r0, #0
 80006a6:	eb41 5104 	adc.w	r1, r1, r4, lsl #20
 80006aa:	bd70      	pop	{r4, r5, r6, pc}
 80006ac:	f006 4600 	and.w	r6, r6, #2147483648	@ 0x80000000
 80006b0:	ea46 0101 	orr.w	r1, r6, r1
 80006b4:	ea40 0002 	orr.w	r0, r0, r2
 80006b8:	ea81 0103 	eor.w	r1, r1, r3
 80006bc:	ebb4 045c 	subs.w	r4, r4, ip, lsr #1
 80006c0:	bfc2      	ittt	gt
 80006c2:	ebd4 050c 	rsbsgt	r5, r4, ip
 80006c6:	ea41 5104 	orrgt.w	r1, r1, r4, lsl #20
 80006ca:	bd70      	popgt	{r4, r5, r6, pc}
 80006cc:	f441 1180 	orr.w	r1, r1, #1048576	@ 0x100000
 80006d0:	f04f 0e00 	mov.w	lr, #0
 80006d4:	3c01      	subs	r4, #1
 80006d6:	f300 80ab 	bgt.w	8000830 <__aeabi_dmul+0x238>
 80006da:	f114 0f36 	cmn.w	r4, #54	@ 0x36
 80006de:	bfde      	ittt	le
 80006e0:	2000      	movle	r0, #0
 80006e2:	f001 4100 	andle.w	r1, r1, #2147483648	@ 0x80000000
 80006e6:	bd70      	pople	{r4, r5, r6, pc}
 80006e8:	f1c4 0400 	rsb	r4, r4, #0
 80006ec:	3c20      	subs	r4, #32
 80006ee:	da35      	bge.n	800075c <__aeabi_dmul+0x164>
 80006f0:	340c      	adds	r4, #12
 80006f2:	dc1b      	bgt.n	800072c <__aeabi_dmul+0x134>
 80006f4:	f104 0414 	add.w	r4, r4, #20
 80006f8:	f1c4 0520 	rsb	r5, r4, #32
 80006fc:	fa00 f305 	lsl.w	r3, r0, r5
 8000700:	fa20 f004 	lsr.w	r0, r0, r4
 8000704:	fa01 f205 	lsl.w	r2, r1, r5
 8000708:	ea40 0002 	orr.w	r0, r0, r2
 800070c:	f001 4200 	and.w	r2, r1, #2147483648	@ 0x80000000
 8000710:	f021 4100 	bic.w	r1, r1, #2147483648	@ 0x80000000
 8000714:	eb10 70d3 	adds.w	r0, r0, r3, lsr #31
 8000718:	fa21 f604 	lsr.w	r6, r1, r4
 800071c:	eb42 0106 	adc.w	r1, r2, r6
 8000720:	ea5e 0e43 	orrs.w	lr, lr, r3, lsl #1
 8000724:	bf08      	it	eq
 8000726:	ea20 70d3 	biceq.w	r0, r0, r3, lsr #31
 800072a:	bd70      	pop	{r4, r5, r6, pc}
 800072c:	f1c4 040c 	rsb	r4, r4, #12
 8000730:	f1c4 0520 	rsb	r5, r4, #32
 8000734:	fa00 f304 	lsl.w	r3, r0, r4
 8000738:	fa20 f005 	lsr.w	r0, r0, r5
 800073c:	fa01 f204 	lsl.w	r2, r1, r4
 8000740:	ea40 0002 	orr.w	r0, r0, r2
 8000744:	f001 4100 	and.w	r1, r1, #2147483648	@ 0x80000000
 8000748:	eb10 70d3 	adds.w	r0, r0, r3, lsr #31
 800074c:	f141 0100 	adc.w	r1, r1, #0
 8000750:	ea5e 0e43 	orrs.w	lr, lr, r3, lsl #1
 8000754:	bf08      	it	eq
 8000756:	ea20 70d3 	biceq.w	r0, r0, r3, lsr #31
 800075a:	bd70      	pop	{r4, r5, r6, pc}
 800075c:	f1c4 0520 	rsb	r5, r4, #32
 8000760:	fa00 f205 	lsl.w	r2, r0, r5
 8000764:	ea4e 0e02 	orr.w	lr, lr, r2
 8000768:	fa20 f304 	lsr.w	r3, r0, r4
 800076c:	fa01 f205 	lsl.w	r2, r1, r5
 8000770:	ea43 0302 	orr.w	r3, r3, r2
 8000774:	fa21 f004 	lsr.w	r0, r1, r4
 8000778:	f001 4100 	and.w	r1, r1, #2147483648	@ 0x80000000
 800077c:	fa21 f204 	lsr.w	r2, r1, r4
 8000780:	ea20 0002 	bic.w	r0, r0, r2
 8000784:	eb00 70d3 	add.w	r0, r0, r3, lsr #31
 8000788:	ea5e 0e43 	orrs.w	lr, lr, r3, lsl #1
 800078c:	bf08      	it	eq
 800078e:	ea20 70d3 	biceq.w	r0, r0, r3, lsr #31
 8000792:	bd70      	pop	{r4, r5, r6, pc}
 8000794:	f094 0f00 	teq	r4, #0
 8000798:	d10f      	bne.n	80007ba <__aeabi_dmul+0x1c2>
 800079a:	f001 4600 	and.w	r6, r1, #2147483648	@ 0x80000000
 800079e:	0040      	lsls	r0, r0, #1
 80007a0:	eb41 0101 	adc.w	r1, r1, r1
 80007a4:	f411 1f80 	tst.w	r1, #1048576	@ 0x100000
 80007a8:	bf08      	it	eq
 80007aa:	3c01      	subeq	r4, #1
 80007ac:	d0f7      	beq.n	800079e <__aeabi_dmul+0x1a6>
 80007ae:	ea41 0106 	orr.w	r1, r1, r6
 80007b2:	f095 0f00 	teq	r5, #0
 80007b6:	bf18      	it	ne
 80007b8:	4770      	bxne	lr
 80007ba:	f003 4600 	and.w	r6, r3, #2147483648	@ 0x80000000
 80007be:	0052      	lsls	r2, r2, #1
 80007c0:	eb43 0303 	adc.w	r3, r3, r3
 80007c4:	f413 1f80 	tst.w	r3, #1048576	@ 0x100000
 80007c8:	bf08      	it	eq
 80007ca:	3d01      	subeq	r5, #1
 80007cc:	d0f7      	beq.n	80007be <__aeabi_dmul+0x1c6>
 80007ce:	ea43 0306 	orr.w	r3, r3, r6
 80007d2:	4770      	bx	lr
 80007d4:	ea94 0f0c 	teq	r4, ip
 80007d8:	ea0c 5513 	and.w	r5, ip, r3, lsr #20
 80007dc:	bf18      	it	ne
 80007de:	ea95 0f0c 	teqne	r5, ip
 80007e2:	d00c      	beq.n	80007fe <__aeabi_dmul+0x206>
 80007e4:	ea50 0641 	orrs.w	r6, r0, r1, lsl #1
 80007e8:	bf18      	it	ne
 80007ea:	ea52 0643 	orrsne.w	r6, r2, r3, lsl #1
 80007ee:	d1d1      	bne.n	8000794 <__aeabi_dmul+0x19c>
 80007f0:	ea81 0103 	eor.w	r1, r1, r3
 80007f4:	f001 4100 	and.w	r1, r1, #2147483648	@ 0x80000000
 80007f8:	f04f 0000 	mov.w	r0, #0
 80007fc:	bd70      	pop	{r4, r5, r6, pc}
 80007fe:	ea50 0641 	orrs.w	r6, r0, r1, lsl #1
 8000802:	bf06      	itte	eq
 8000804:	4610      	moveq	r0, r2
 8000806:	4619      	moveq	r1, r3
 8000808:	ea52 0643 	orrsne.w	r6, r2, r3, lsl #1
 800080c:	d019      	beq.n	8000842 <__aeabi_dmul+0x24a>
 800080e:	ea94 0f0c 	teq	r4, ip
 8000812:	d102      	bne.n	800081a <__aeabi_dmul+0x222>
 8000814:	ea50 3601 	orrs.w	r6, r0, r1, lsl #12
 8000818:	d113      	bne.n	8000842 <__aeabi_dmul+0x24a>
 800081a:	ea95 0f0c 	teq	r5, ip
 800081e:	d105      	bne.n	800082c <__aeabi_dmul+0x234>
 8000820:	ea52 3603 	orrs.w	r6, r2, r3, lsl #12
 8000824:	bf1c      	itt	ne
 8000826:	4610      	movne	r0, r2
 8000828:	4619      	movne	r1, r3
 800082a:	d10a      	bne.n	8000842 <__aeabi_dmul+0x24a>
 800082c:	ea81 0103 	eor.w	r1, r1, r3
 8000830:	f001 4100 	and.w	r1, r1, #2147483648	@ 0x80000000
 8000834:	f041 41fe 	orr.w	r1, r1, #2130706432	@ 0x7f000000
 8000838:	f441 0170 	orr.w	r1, r1, #15728640	@ 0xf00000
 800083c:	f04f 0000 	mov.w	r0, #0
 8000840:	bd70      	pop	{r4, r5, r6, pc}
 8000842:	f041 41fe 	orr.w	r1, r1, #2130706432	@ 0x7f000000
 8000846:	f441 0178 	orr.w	r1, r1, #16252928	@ 0xf80000
 800084a:	bd70      	pop	{r4, r5, r6, pc}

0800084c <__aeabi_ddiv>:
 800084c:	b570      	push	{r4, r5, r6, lr}
 800084e:	f04f 0cff 	mov.w	ip, #255	@ 0xff
 8000852:	f44c 6ce0 	orr.w	ip, ip, #1792	@ 0x700
 8000856:	ea1c 5411 	ands.w	r4, ip, r1, lsr #20
 800085a:	bf1d      	ittte	ne
 800085c:	ea1c 5513 	andsne.w	r5, ip, r3, lsr #20
 8000860:	ea94 0f0c 	teqne	r4, ip
 8000864:	ea95 0f0c 	teqne	r5, ip
 8000868:	f000 f8a7 	bleq	80009ba <__aeabi_ddiv+0x16e>
 800086c:	eba4 0405 	sub.w	r4, r4, r5
 8000870:	ea81 0e03 	eor.w	lr, r1, r3
 8000874:	ea52 3503 	orrs.w	r5, r2, r3, lsl #12
 8000878:	ea4f 3101 	mov.w	r1, r1, lsl #12
 800087c:	f000 8088 	beq.w	8000990 <__aeabi_ddiv+0x144>
 8000880:	ea4f 3303 	mov.w	r3, r3, lsl #12
 8000884:	f04f 5580 	mov.w	r5, #268435456	@ 0x10000000
 8000888:	ea45 1313 	orr.w	r3, r5, r3, lsr #4
 800088c:	ea43 6312 	orr.w	r3, r3, r2, lsr #24
 8000890:	ea4f 2202 	mov.w	r2, r2, lsl #8
 8000894:	ea45 1511 	orr.w	r5, r5, r1, lsr #4
 8000898:	ea45 6510 	orr.w	r5, r5, r0, lsr #24
 800089c:	ea4f 2600 	mov.w	r6, r0, lsl #8
 80008a0:	f00e 4100 	and.w	r1, lr, #2147483648	@ 0x80000000
 80008a4:	429d      	cmp	r5, r3
 80008a6:	bf08      	it	eq
 80008a8:	4296      	cmpeq	r6, r2
 80008aa:	f144 04fd 	adc.w	r4, r4, #253	@ 0xfd
 80008ae:	f504 7440 	add.w	r4, r4, #768	@ 0x300
 80008b2:	d202      	bcs.n	80008ba <__aeabi_ddiv+0x6e>
 80008b4:	085b      	lsrs	r3, r3, #1
 80008b6:	ea4f 0232 	mov.w	r2, r2, rrx
 80008ba:	1ab6      	subs	r6, r6, r2
 80008bc:	eb65 0503 	sbc.w	r5, r5, r3
 80008c0:	085b      	lsrs	r3, r3, #1
 80008c2:	ea4f 0232 	mov.w	r2, r2, rrx
 80008c6:	f44f 1080 	mov.w	r0, #1048576	@ 0x100000
 80008ca:	f44f 2c00 	mov.w	ip, #524288	@ 0x80000
 80008ce:	ebb6 0e02 	subs.w	lr, r6, r2
 80008d2:	eb75 0e03 	sbcs.w	lr, r5, r3
 80008d6:	bf22      	ittt	cs
 80008d8:	1ab6      	subcs	r6, r6, r2
 80008da:	4675      	movcs	r5, lr
 80008dc:	ea40 000c 	orrcs.w	r0, r0, ip
 80008e0:	085b      	lsrs	r3, r3, #1
 80008e2:	ea4f 0232 	mov.w	r2, r2, rrx
 80008e6:	ebb6 0e02 	subs.w	lr, r6, r2
 80008ea:	eb75 0e03 	sbcs.w	lr, r5, r3
 80008ee:	bf22      	ittt	cs
 80008f0:	1ab6      	subcs	r6, r6, r2
 80008f2:	4675      	movcs	r5, lr
 80008f4:	ea40 005c 	orrcs.w	r0, r0, ip, lsr #1
 80008f8:	085b      	lsrs	r3, r3, #1
 80008fa:	ea4f 0232 	mov.w	r2, r2, rrx
 80008fe:	ebb6 0e02 	subs.w	lr, r6, r2
 8000902:	eb75 0e03 	sbcs.w	lr, r5, r3
 8000906:	bf22      	ittt	cs
 8000908:	1ab6      	subcs	r6, r6, r2
 800090a:	4675      	movcs	r5, lr
 800090c:	ea40 009c 	orrcs.w	r0, r0, ip, lsr #2
 8000910:	085b      	lsrs	r3, r3, #1
 8000912:	ea4f 0232 	mov.w	r2, r2, rrx
 8000916:	ebb6 0e02 	subs.w	lr, r6, r2
 800091a:	eb75 0e03 	sbcs.w	lr, r5, r3
 800091e:	bf22      	ittt	cs
 8000920:	1ab6      	subcs	r6, r6, r2
 8000922:	4675      	movcs	r5, lr
 8000924:	ea40 00dc 	orrcs.w	r0, r0, ip, lsr #3
 8000928:	ea55 0e06 	orrs.w	lr, r5, r6
 800092c:	d018      	beq.n	8000960 <__aeabi_ddiv+0x114>
 800092e:	ea4f 1505 	mov.w	r5, r5, lsl #4
 8000932:	ea45 7516 	orr.w	r5, r5, r6, lsr #28
 8000936:	ea4f 1606 	mov.w	r6, r6, lsl #4
 800093a:	ea4f 03c3 	mov.w	r3, r3, lsl #3
 800093e:	ea43 7352 	orr.w	r3, r3, r2, lsr #29
 8000942:	ea4f 02c2 	mov.w	r2, r2, lsl #3
 8000946:	ea5f 1c1c 	movs.w	ip, ip, lsr #4
 800094a:	d1c0      	bne.n	80008ce <__aeabi_ddiv+0x82>
 800094c:	f411 1f80 	tst.w	r1, #1048576	@ 0x100000
 8000950:	d10b      	bne.n	800096a <__aeabi_ddiv+0x11e>
 8000952:	ea41 0100 	orr.w	r1, r1, r0
 8000956:	f04f 0000 	mov.w	r0, #0
 800095a:	f04f 4c00 	mov.w	ip, #2147483648	@ 0x80000000
 800095e:	e7b6      	b.n	80008ce <__aeabi_ddiv+0x82>
 8000960:	f411 1f80 	tst.w	r1, #1048576	@ 0x100000
 8000964:	bf04      	itt	eq
 8000966:	4301      	orreq	r1, r0
 8000968:	2000      	moveq	r0, #0
 800096a:	f1b4 0cfd 	subs.w	ip, r4, #253	@ 0xfd
 800096e:	bf88      	it	hi
 8000970:	f5bc 6fe0 	cmphi.w	ip, #1792	@ 0x700
 8000974:	f63f aeaf 	bhi.w	80006d6 <__aeabi_dmul+0xde>
 8000978:	ebb5 0c03 	subs.w	ip, r5, r3
 800097c:	bf04      	itt	eq
 800097e:	ebb6 0c02 	subseq.w	ip, r6, r2
 8000982:	ea5f 0c50 	movseq.w	ip, r0, lsr #1
 8000986:	f150 0000 	adcs.w	r0, r0, #0
 800098a:	eb41 5104 	adc.w	r1, r1, r4, lsl #20
 800098e:	bd70      	pop	{r4, r5, r6, pc}
 8000990:	f00e 4e00 	and.w	lr, lr, #2147483648	@ 0x80000000
 8000994:	ea4e 3111 	orr.w	r1, lr, r1, lsr #12
 8000998:	eb14 045c 	adds.w	r4, r4, ip, lsr #1
 800099c:	bfc2      	ittt	gt
 800099e:	ebd4 050c 	rsbsgt	r5, r4, ip
 80009a2:	ea41 5104 	orrgt.w	r1, r1, r4, lsl #20
 80009a6:	bd70      	popgt	{r4, r5, r6, pc}
 80009a8:	f441 1180 	orr.w	r1, r1, #1048576	@ 0x100000
 80009ac:	f04f 0e00 	mov.w	lr, #0
 80009b0:	3c01      	subs	r4, #1
 80009b2:	e690      	b.n	80006d6 <__aeabi_dmul+0xde>
 80009b4:	ea45 0e06 	orr.w	lr, r5, r6
 80009b8:	e68d      	b.n	80006d6 <__aeabi_dmul+0xde>
 80009ba:	ea0c 5513 	and.w	r5, ip, r3, lsr #20
 80009be:	ea94 0f0c 	teq	r4, ip
 80009c2:	bf08      	it	eq
 80009c4:	ea95 0f0c 	teqeq	r5, ip
 80009c8:	f43f af3b 	beq.w	8000842 <__aeabi_dmul+0x24a>
 80009cc:	ea94 0f0c 	teq	r4, ip
 80009d0:	d10a      	bne.n	80009e8 <__aeabi_ddiv+0x19c>
 80009d2:	ea50 3401 	orrs.w	r4, r0, r1, lsl #12
 80009d6:	f47f af34 	bne.w	8000842 <__aeabi_dmul+0x24a>
 80009da:	ea95 0f0c 	teq	r5, ip
 80009de:	f47f af25 	bne.w	800082c <__aeabi_dmul+0x234>
 80009e2:	4610      	mov	r0, r2
 80009e4:	4619      	mov	r1, r3
 80009e6:	e72c      	b.n	8000842 <__aeabi_dmul+0x24a>
 80009e8:	ea95 0f0c 	teq	r5, ip
 80009ec:	d106      	bne.n	80009fc <__aeabi_ddiv+0x1b0>
 80009ee:	ea52 3503 	orrs.w	r5, r2, r3, lsl #12
 80009f2:	f43f aefd 	beq.w	80007f0 <__aeabi_dmul+0x1f8>
 80009f6:	4610      	mov	r0, r2
 80009f8:	4619      	mov	r1, r3
 80009fa:	e722      	b.n	8000842 <__aeabi_dmul+0x24a>
 80009fc:	ea50 0641 	orrs.w	r6, r0, r1, lsl #1
 8000a00:	bf18      	it	ne
 8000a02:	ea52 0643 	orrsne.w	r6, r2, r3, lsl #1
 8000a06:	f47f aec5 	bne.w	8000794 <__aeabi_dmul+0x19c>
 8000a0a:	ea50 0441 	orrs.w	r4, r0, r1, lsl #1
 8000a0e:	f47f af0d 	bne.w	800082c <__aeabi_dmul+0x234>
 8000a12:	ea52 0543 	orrs.w	r5, r2, r3, lsl #1
 8000a16:	f47f aeeb 	bne.w	80007f0 <__aeabi_dmul+0x1f8>
 8000a1a:	e712      	b.n	8000842 <__aeabi_dmul+0x24a>

08000a1c <__aeabi_d2f>:
 8000a1c:	ea4f 0241 	mov.w	r2, r1, lsl #1
 8000a20:	f1b2 43e0 	subs.w	r3, r2, #1879048192	@ 0x70000000
 8000a24:	bf24      	itt	cs
 8000a26:	f5b3 1c00 	subscs.w	ip, r3, #2097152	@ 0x200000
 8000a2a:	f1dc 5cfe 	rsbscs	ip, ip, #532676608	@ 0x1fc00000
 8000a2e:	d90d      	bls.n	8000a4c <__aeabi_d2f+0x30>
 8000a30:	f001 4c00 	and.w	ip, r1, #2147483648	@ 0x80000000
 8000a34:	ea4f 02c0 	mov.w	r2, r0, lsl #3
 8000a38:	ea4c 7050 	orr.w	r0, ip, r0, lsr #29
 8000a3c:	f1b2 4f00 	cmp.w	r2, #2147483648	@ 0x80000000
 8000a40:	eb40 0083 	adc.w	r0, r0, r3, lsl #2
 8000a44:	bf08      	it	eq
 8000a46:	f020 0001 	biceq.w	r0, r0, #1
 8000a4a:	4770      	bx	lr
 8000a4c:	f011 4f80 	tst.w	r1, #1073741824	@ 0x40000000
 8000a50:	d121      	bne.n	8000a96 <__aeabi_d2f+0x7a>
 8000a52:	f113 7238 	adds.w	r2, r3, #48234496	@ 0x2e00000
 8000a56:	bfbc      	itt	lt
 8000a58:	f001 4000 	andlt.w	r0, r1, #2147483648	@ 0x80000000
 8000a5c:	4770      	bxlt	lr
 8000a5e:	f441 1180 	orr.w	r1, r1, #1048576	@ 0x100000
 8000a62:	ea4f 5252 	mov.w	r2, r2, lsr #21
 8000a66:	f1c2 0218 	rsb	r2, r2, #24
 8000a6a:	f1c2 0c20 	rsb	ip, r2, #32
 8000a6e:	fa10 f30c 	lsls.w	r3, r0, ip
 8000a72:	fa20 f002 	lsr.w	r0, r0, r2
 8000a76:	bf18      	it	ne
 8000a78:	f040 0001 	orrne.w	r0, r0, #1
 8000a7c:	ea4f 23c1 	mov.w	r3, r1, lsl #11
 8000a80:	ea4f 23d3 	mov.w	r3, r3, lsr #11
 8000a84:	fa03 fc0c 	lsl.w	ip, r3, ip
 8000a88:	ea40 000c 	orr.w	r0, r0, ip
 8000a8c:	fa23 f302 	lsr.w	r3, r3, r2
 8000a90:	ea4f 0343 	mov.w	r3, r3, lsl #1
 8000a94:	e7cc      	b.n	8000a30 <__aeabi_d2f+0x14>
 8000a96:	ea7f 5362 	mvns.w	r3, r2, asr #21
 8000a9a:	d107      	bne.n	8000aac <__aeabi_d2f+0x90>
 8000a9c:	ea50 3301 	orrs.w	r3, r0, r1, lsl #12
 8000aa0:	bf1e      	ittt	ne
 8000aa2:	f04f 40fe 	movne.w	r0, #2130706432	@ 0x7f000000
 8000aa6:	f440 0040 	orrne.w	r0, r0, #12582912	@ 0xc00000
 8000aaa:	4770      	bxne	lr
 8000aac:	f001 4000 	and.w	r0, r1, #2147483648	@ 0x80000000
 8000ab0:	f040 40fe 	orr.w	r0, r0, #2130706432	@ 0x7f000000
 8000ab4:	f440 0000 	orr.w	r0, r0, #8388608	@ 0x800000
 8000ab8:	4770      	bx	lr
 8000aba:	bf00      	nop

08000abc <RCC_En_CANx>:
#include <stdint.h>
#include<stdbool.h>

#include "CANx.h"

void RCC_En_CANx(CAN_TypeDef *port){
 8000abc:	b480      	push	{r7}
 8000abe:	b083      	sub	sp, #12
 8000ac0:	af00      	add	r7, sp, #0
 8000ac2:	6078      	str	r0, [r7, #4]
		if(port == CAN1){
 8000ac4:	687b      	ldr	r3, [r7, #4]
 8000ac6:	4a07      	ldr	r2, [pc, #28]	@ (8000ae4 <RCC_En_CANx+0x28>)
 8000ac8:	4293      	cmp	r3, r2
 8000aca:	d105      	bne.n	8000ad8 <RCC_En_CANx+0x1c>
			SET_BIT(RCC->APB1ENR1,RCC_APB1ENR1_CAN1EN);
 8000acc:	4b06      	ldr	r3, [pc, #24]	@ (8000ae8 <RCC_En_CANx+0x2c>)
 8000ace:	6d9b      	ldr	r3, [r3, #88]	@ 0x58
 8000ad0:	4a05      	ldr	r2, [pc, #20]	@ (8000ae8 <RCC_En_CANx+0x2c>)
 8000ad2:	f043 7300 	orr.w	r3, r3, #33554432	@ 0x2000000
 8000ad6:	6593      	str	r3, [r2, #88]	@ 0x58
		}
}
 8000ad8:	bf00      	nop
 8000ada:	370c      	adds	r7, #12
 8000adc:	46bd      	mov	sp, r7
 8000ade:	f85d 7b04 	ldr.w	r7, [sp], #4
 8000ae2:	4770      	bx	lr
 8000ae4:	40006400 	.word	0x40006400
 8000ae8:	40021000 	.word	0x40021000

08000aec <CANx_Init>:

void CANx_Init(CAN_TypeDef *port){
 8000aec:	b480      	push	{r7}
 8000aee:	b083      	sub	sp, #12
 8000af0:	af00      	add	r7, sp, #0
 8000af2:	6078      	str	r0, [r7, #4]
	SET_BIT(port->MCR, CAN_MCR_RESET);//Reset FORZAMOS a entrar a modo sleep
 8000af4:	687b      	ldr	r3, [r7, #4]
 8000af6:	681b      	ldr	r3, [r3, #0]
 8000af8:	f443 4200 	orr.w	r2, r3, #32768	@ 0x8000
 8000afc:	687b      	ldr	r3, [r7, #4]
 8000afe:	601a      	str	r2, [r3, #0]
	while(port->MCR & CAN_MCR_RESET) {}; //Esperamos a que el bit RESET se limpie
 8000b00:	bf00      	nop
 8000b02:	687b      	ldr	r3, [r7, #4]
 8000b04:	681b      	ldr	r3, [r3, #0]
 8000b06:	f403 4300 	and.w	r3, r3, #32768	@ 0x8000
 8000b0a:	2b00      	cmp	r3, #0
 8000b0c:	d1f9      	bne.n	8000b02 <CANx_Init+0x16>
	SET_BIT(port->MCR, CAN_MCR_INRQ);//Solicitamos entrar a modo inicializacion
 8000b0e:	687b      	ldr	r3, [r7, #4]
 8000b10:	681b      	ldr	r3, [r3, #0]
 8000b12:	f043 0201 	orr.w	r2, r3, #1
 8000b16:	687b      	ldr	r3, [r7, #4]
 8000b18:	601a      	str	r2, [r3, #0]
	while((port->MSR & CAN_MSR_INAK)==0){};//Esperamos a que el bit INAK sea set
 8000b1a:	bf00      	nop
 8000b1c:	687b      	ldr	r3, [r7, #4]
 8000b1e:	685b      	ldr	r3, [r3, #4]
 8000b20:	f003 0301 	and.w	r3, r3, #1
 8000b24:	2b00      	cmp	r3, #0
 8000b26:	d0f9      	beq.n	8000b1c <CANx_Init+0x30>
	CLEAR_BIT(port->MCR, CAN_MCR_SLEEP);//Solicitamos Apagagar modo sleep
 8000b28:	687b      	ldr	r3, [r7, #4]
 8000b2a:	681b      	ldr	r3, [r3, #0]
 8000b2c:	f023 0202 	bic.w	r2, r3, #2
 8000b30:	687b      	ldr	r3, [r7, #4]
 8000b32:	601a      	str	r2, [r3, #0]
	while(port->MSR & CAN_MSR_SLAK) {}; //Esperamos a que el bit SLAK se limpie ****ENTRAMOS A MODO INICIALIZACION TRAS ackmowledge de sleep off
 8000b34:	bf00      	nop
 8000b36:	687b      	ldr	r3, [r7, #4]
 8000b38:	685b      	ldr	r3, [r3, #4]
 8000b3a:	f003 0302 	and.w	r3, r3, #2
 8000b3e:	2b00      	cmp	r3, #0
 8000b40:	d1f9      	bne.n	8000b36 <CANx_Init+0x4a>

	CLEAR_BIT(port->MCR, CAN_MCR_TXFP);// Inicializas el arbitraje, es decir la prioridad de cada mensaje es por identificador
 8000b42:	687b      	ldr	r3, [r7, #4]
 8000b44:	681b      	ldr	r3, [r3, #0]
 8000b46:	f023 0204 	bic.w	r2, r3, #4
 8000b4a:	687b      	ldr	r3, [r7, #4]
 8000b4c:	601a      	str	r2, [r3, #0]
	CLEAR_BIT(port->MCR, CAN_MCR_RFLM);//La FIFO no se bloquea al haber estado de OVERRUN
 8000b4e:	687b      	ldr	r3, [r7, #4]
 8000b50:	681b      	ldr	r3, [r3, #0]
 8000b52:	f023 0208 	bic.w	r2, r3, #8
 8000b56:	687b      	ldr	r3, [r7, #4]
 8000b58:	601a      	str	r2, [r3, #0]
	SET_BIT(port->MCR, CAN_MCR_NART);//Activamos la retransmisión automática.
 8000b5a:	687b      	ldr	r3, [r7, #4]
 8000b5c:	681b      	ldr	r3, [r3, #0]
 8000b5e:	f043 0210 	orr.w	r2, r3, #16
 8000b62:	687b      	ldr	r3, [r7, #4]
 8000b64:	601a      	str	r2, [r3, #0]
	//Modificar, si no se desea retransmitir NART=1.
	CLEAR_BIT(port->MCR, CAN_MCR_AWUM);//AQUI SALIMOS DE MODO SLEEP POR SOFTWARE, EN UN FUTURO CONSIDERAR CAMBIARLOS A MODO HARDWARE PARA MODOS DE BAJO CONSUMO (CARRO PRENDIDO?)
 8000b66:	687b      	ldr	r3, [r7, #4]
 8000b68:	681b      	ldr	r3, [r3, #0]
 8000b6a:	f023 0220 	bic.w	r2, r3, #32
 8000b6e:	687b      	ldr	r3, [r7, #4]
 8000b70:	601a      	str	r2, [r3, #0]
	CLEAR_BIT(port->MCR, CAN_MCR_ABOM);//SALIDA DE BUSS OFF POR SOFTWARE
 8000b72:	687b      	ldr	r3, [r7, #4]
 8000b74:	681b      	ldr	r3, [r3, #0]
 8000b76:	f023 0240 	bic.w	r2, r3, #64	@ 0x40
 8000b7a:	687b      	ldr	r3, [r7, #4]
 8000b7c:	601a      	str	r2, [r3, #0]
	CLEAR_BIT(port->MCR, CAN_MCR_TTCM);//Desactivamos funcion solo disponible para RTOS
 8000b7e:	687b      	ldr	r3, [r7, #4]
 8000b80:	681b      	ldr	r3, [r3, #0]
 8000b82:	f023 0280 	bic.w	r2, r3, #128	@ 0x80
 8000b86:	687b      	ldr	r3, [r7, #4]
 8000b88:	601a      	str	r2, [r3, #0]
	CLEAR_BIT(port->MCR, CAN_MCR_RESET);//
 8000b8a:	687b      	ldr	r3, [r7, #4]
 8000b8c:	681b      	ldr	r3, [r3, #0]
 8000b8e:	f423 4200 	bic.w	r2, r3, #32768	@ 0x8000
 8000b92:	687b      	ldr	r3, [r7, #4]
 8000b94:	601a      	str	r2, [r3, #0]
	CLEAR_BIT(port->MCR, CAN_MCR_DBF);//Activa funcionamiento en modo debug
 8000b96:	687b      	ldr	r3, [r7, #4]
 8000b98:	681b      	ldr	r3, [r3, #0]
 8000b9a:	f423 4200 	bic.w	r2, r3, #32768	@ 0x8000
 8000b9e:	687b      	ldr	r3, [r7, #4]
 8000ba0:	601a      	str	r2, [r3, #0]
}
 8000ba2:	bf00      	nop
 8000ba4:	370c      	adds	r7, #12
 8000ba6:	46bd      	mov	sp, r7
 8000ba8:	f85d 7b04 	ldr.w	r7, [sp], #4
 8000bac:	4770      	bx	lr

08000bae <CANx_BitTiming_500Kz>:

void CANx_BitTiming_500Kz (CAN_TypeDef *port){
 8000bae:	b480      	push	{r7}
 8000bb0:	b083      	sub	sp, #12
 8000bb2:	af00      	add	r7, sp, #0
 8000bb4:	6078      	str	r0, [r7, #4]

	//SET_BIT(port->BTR , (CAN_BTR_LBKM)); //Descomentar si se quieren hacer pruebas en modo loopback
	//SET_BIT(port->Register->BTR , (CAN_SILENT));
	CLEAR_BIT(port->BTR , (CAN_BTR_BRP));//limpia  BRP
 8000bb6:	687b      	ldr	r3, [r7, #4]
 8000bb8:	69db      	ldr	r3, [r3, #28]
 8000bba:	f423 737f 	bic.w	r3, r3, #1020	@ 0x3fc
 8000bbe:	f023 0303 	bic.w	r3, r3, #3
 8000bc2:	687a      	ldr	r2, [r7, #4]
 8000bc4:	61d3      	str	r3, [r2, #28]
	CLEAR_BIT(port->BTR , (CAN_BTR_TS1));//limpia TS1
 8000bc6:	687b      	ldr	r3, [r7, #4]
 8000bc8:	69db      	ldr	r3, [r3, #28]
 8000bca:	f423 2270 	bic.w	r2, r3, #983040	@ 0xf0000
 8000bce:	687b      	ldr	r3, [r7, #4]
 8000bd0:	61da      	str	r2, [r3, #28]
	CLEAR_BIT(port->BTR , (CAN_BTR_TS2));//limpia TS2
 8000bd2:	687b      	ldr	r3, [r7, #4]
 8000bd4:	69db      	ldr	r3, [r3, #28]
 8000bd6:	f423 02e0 	bic.w	r2, r3, #7340032	@ 0x700000
 8000bda:	687b      	ldr	r3, [r7, #4]
 8000bdc:	61da      	str	r2, [r3, #28]

	SET_BIT(port->BTR , ((0x1UL)<<CAN_BTR_BRP_Pos));//fija Baud rate
 8000bde:	687b      	ldr	r3, [r7, #4]
 8000be0:	69db      	ldr	r3, [r3, #28]
 8000be2:	f043 0201 	orr.w	r2, r3, #1
 8000be6:	687b      	ldr	r3, [r7, #4]
 8000be8:	61da      	str	r2, [r3, #28]
	SET_BIT(port->BTR , ((11U)<<CAN_BTR_TS1_Pos));//configura tS1
 8000bea:	687b      	ldr	r3, [r7, #4]
 8000bec:	69db      	ldr	r3, [r3, #28]
 8000bee:	f443 2230 	orr.w	r2, r3, #720896	@ 0xb0000
 8000bf2:	687b      	ldr	r3, [r7, #4]
 8000bf4:	61da      	str	r2, [r3, #28]
	SET_BIT(port->BTR , ((0x2UL)<<CAN_BTR_TS2_Pos));//configura tS2
 8000bf6:	687b      	ldr	r3, [r7, #4]
 8000bf8:	69db      	ldr	r3, [r3, #28]
 8000bfa:	f443 1200 	orr.w	r2, r3, #2097152	@ 0x200000
 8000bfe:	687b      	ldr	r3, [r7, #4]
 8000c00:	61da      	str	r2, [r3, #28]
}
 8000c02:	bf00      	nop
 8000c04:	370c      	adds	r7, #12
 8000c06:	46bd      	mov	sp, r7
 8000c08:	f85d 7b04 	ldr.w	r7, [sp], #4
 8000c0c:	4770      	bx	lr

08000c0e <CAN_FilterInit>:


void CAN_FilterInit (CAN_TypeDef *port, bool Mode, bool Scale, bool Fifo, uint8_t BitIndex){
 8000c0e:	b480      	push	{r7}
 8000c10:	b083      	sub	sp, #12
 8000c12:	af00      	add	r7, sp, #0
 8000c14:	6078      	str	r0, [r7, #4]
 8000c16:	4608      	mov	r0, r1
 8000c18:	4611      	mov	r1, r2
 8000c1a:	461a      	mov	r2, r3
 8000c1c:	4603      	mov	r3, r0
 8000c1e:	70fb      	strb	r3, [r7, #3]
 8000c20:	460b      	mov	r3, r1
 8000c22:	70bb      	strb	r3, [r7, #2]
 8000c24:	4613      	mov	r3, r2
 8000c26:	707b      	strb	r3, [r7, #1]
	CLEAR_BIT(port->FA1R, (1 << BitIndex)); //Desactivo el filtro del Bit index
 8000c28:	687b      	ldr	r3, [r7, #4]
 8000c2a:	f8d3 321c 	ldr.w	r3, [r3, #540]	@ 0x21c
 8000c2e:	7c3a      	ldrb	r2, [r7, #16]
 8000c30:	2101      	movs	r1, #1
 8000c32:	fa01 f202 	lsl.w	r2, r1, r2
 8000c36:	43d2      	mvns	r2, r2
 8000c38:	401a      	ands	r2, r3
 8000c3a:	687b      	ldr	r3, [r7, #4]
 8000c3c:	f8c3 221c 	str.w	r2, [r3, #540]	@ 0x21c
	SET_BIT(port->MSR,CAN_FMR_FINIT);//modo inicialización en los filtros
 8000c40:	687b      	ldr	r3, [r7, #4]
 8000c42:	685b      	ldr	r3, [r3, #4]
 8000c44:	f043 0201 	orr.w	r2, r3, #1
 8000c48:	687b      	ldr	r3, [r7, #4]
 8000c4a:	605a      	str	r2, [r3, #4]

    // Configuramos el bit correspondiente utilizando BitIndex para configurar modo lista o mascara
    if (Mode) {
 8000c4c:	78fb      	ldrb	r3, [r7, #3]
 8000c4e:	2b00      	cmp	r3, #0
 8000c50:	d00b      	beq.n	8000c6a <CAN_FilterInit+0x5c>
    	SET_BIT(port->FM1R, (1 << BitIndex)); // Si Mode es verdadero, establecemos el bit en BitIndex
 8000c52:	687b      	ldr	r3, [r7, #4]
 8000c54:	f8d3 3204 	ldr.w	r3, [r3, #516]	@ 0x204
 8000c58:	7c3a      	ldrb	r2, [r7, #16]
 8000c5a:	2101      	movs	r1, #1
 8000c5c:	fa01 f202 	lsl.w	r2, r1, r2
 8000c60:	431a      	orrs	r2, r3
 8000c62:	687b      	ldr	r3, [r7, #4]
 8000c64:	f8c3 2204 	str.w	r2, [r3, #516]	@ 0x204
 8000c68:	e00b      	b.n	8000c82 <CAN_FilterInit+0x74>
    } else {
    	CLEAR_BIT(port->FM1R, (1 << BitIndex)); // Si Mode es falso, limpiamos el bit en BitIndex
 8000c6a:	687b      	ldr	r3, [r7, #4]
 8000c6c:	f8d3 3204 	ldr.w	r3, [r3, #516]	@ 0x204
 8000c70:	7c3a      	ldrb	r2, [r7, #16]
 8000c72:	2101      	movs	r1, #1
 8000c74:	fa01 f202 	lsl.w	r2, r1, r2
 8000c78:	43d2      	mvns	r2, r2
 8000c7a:	401a      	ands	r2, r3
 8000c7c:	687b      	ldr	r3, [r7, #4]
 8000c7e:	f8c3 2204 	str.w	r2, [r3, #516]	@ 0x204
    }

 // Configuramos el bit correspondiente utilizando BitIndex para configurar la escala
    if (Scale) {
 8000c82:	78bb      	ldrb	r3, [r7, #2]
 8000c84:	2b00      	cmp	r3, #0
 8000c86:	d00b      	beq.n	8000ca0 <CAN_FilterInit+0x92>
        SET_BIT(port->FS1R, (1 << BitIndex)); // Si Mode es verdadero, establecemos el bit en BitIndex
 8000c88:	687b      	ldr	r3, [r7, #4]
 8000c8a:	f8d3 320c 	ldr.w	r3, [r3, #524]	@ 0x20c
 8000c8e:	7c3a      	ldrb	r2, [r7, #16]
 8000c90:	2101      	movs	r1, #1
 8000c92:	fa01 f202 	lsl.w	r2, r1, r2
 8000c96:	431a      	orrs	r2, r3
 8000c98:	687b      	ldr	r3, [r7, #4]
 8000c9a:	f8c3 220c 	str.w	r2, [r3, #524]	@ 0x20c
 8000c9e:	e00b      	b.n	8000cb8 <CAN_FilterInit+0xaa>
    } else {
        CLEAR_BIT(port->FS1R, (1 << BitIndex));// Si Mode es falso, limpiamos el bit en BitIndex
 8000ca0:	687b      	ldr	r3, [r7, #4]
 8000ca2:	f8d3 320c 	ldr.w	r3, [r3, #524]	@ 0x20c
 8000ca6:	7c3a      	ldrb	r2, [r7, #16]
 8000ca8:	2101      	movs	r1, #1
 8000caa:	fa01 f202 	lsl.w	r2, r1, r2
 8000cae:	43d2      	mvns	r2, r2
 8000cb0:	401a      	ands	r2, r3
 8000cb2:	687b      	ldr	r3, [r7, #4]
 8000cb4:	f8c3 220c 	str.w	r2, [r3, #524]	@ 0x20c
    }

    // Configuramos el bit correspondiente utilizando BitIndex para asignar a FIFO0 o FIFO1
     if (Fifo) {
 8000cb8:	787b      	ldrb	r3, [r7, #1]
 8000cba:	2b00      	cmp	r3, #0
 8000cbc:	d00b      	beq.n	8000cd6 <CAN_FilterInit+0xc8>
         SET_BIT(port->FFA1R, (1 << BitIndex));// Si Mode es verdadero, establecemos el bit en BitIndex
 8000cbe:	687b      	ldr	r3, [r7, #4]
 8000cc0:	f8d3 3214 	ldr.w	r3, [r3, #532]	@ 0x214
 8000cc4:	7c3a      	ldrb	r2, [r7, #16]
 8000cc6:	2101      	movs	r1, #1
 8000cc8:	fa01 f202 	lsl.w	r2, r1, r2
 8000ccc:	431a      	orrs	r2, r3
 8000cce:	687b      	ldr	r3, [r7, #4]
 8000cd0:	f8c3 2214 	str.w	r2, [r3, #532]	@ 0x214
 8000cd4:	e00b      	b.n	8000cee <CAN_FilterInit+0xe0>
     } else {
         CLEAR_BIT(port->FFA1R, (1 << BitIndex));// Si Mode es falso, limpiamos el bit en BitIndex FFA1R
 8000cd6:	687b      	ldr	r3, [r7, #4]
 8000cd8:	f8d3 3214 	ldr.w	r3, [r3, #532]	@ 0x214
 8000cdc:	7c3a      	ldrb	r2, [r7, #16]
 8000cde:	2101      	movs	r1, #1
 8000ce0:	fa01 f202 	lsl.w	r2, r1, r2
 8000ce4:	43d2      	mvns	r2, r2
 8000ce6:	401a      	ands	r2, r3
 8000ce8:	687b      	ldr	r3, [r7, #4]
 8000cea:	f8c3 2214 	str.w	r2, [r3, #532]	@ 0x214
     }

     SET_BIT(port->FA1R, (1 << BitIndex)); //Acitva el filtro del Bit index
 8000cee:	687b      	ldr	r3, [r7, #4]
 8000cf0:	f8d3 321c 	ldr.w	r3, [r3, #540]	@ 0x21c
 8000cf4:	7c3a      	ldrb	r2, [r7, #16]
 8000cf6:	2101      	movs	r1, #1
 8000cf8:	fa01 f202 	lsl.w	r2, r1, r2
 8000cfc:	431a      	orrs	r2, r3
 8000cfe:	687b      	ldr	r3, [r7, #4]
 8000d00:	f8c3 221c 	str.w	r2, [r3, #540]	@ 0x21c
   //  CLEAR_BIT(port->FMR,CAN_FMR_FINIT);//fin de modo inicialización
}
 8000d04:	bf00      	nop
 8000d06:	370c      	adds	r7, #12
 8000d08:	46bd      	mov	sp, r7
 8000d0a:	f85d 7b04 	ldr.w	r7, [sp], #4
 8000d0e:	4770      	bx	lr

08000d10 <CAN_SetFilterValue>:

void CAN_SetFilterValue(CAN_TypeDef *port, uint32_t ID, uint32_t Mask, uint8_t BitIndex){
 8000d10:	b480      	push	{r7}
 8000d12:	b085      	sub	sp, #20
 8000d14:	af00      	add	r7, sp, #0
 8000d16:	60f8      	str	r0, [r7, #12]
 8000d18:	60b9      	str	r1, [r7, #8]
 8000d1a:	607a      	str	r2, [r7, #4]
 8000d1c:	70fb      	strb	r3, [r7, #3]

    SET_BIT(port->FMR, CAN_FMR_FINIT); // Activamos el modo de inicialización de filtros
 8000d1e:	68fb      	ldr	r3, [r7, #12]
 8000d20:	f8d3 3200 	ldr.w	r3, [r3, #512]	@ 0x200
 8000d24:	f043 0201 	orr.w	r2, r3, #1
 8000d28:	68fb      	ldr	r3, [r7, #12]
 8000d2a:	f8c3 2200 	str.w	r2, [r3, #512]	@ 0x200
    CLEAR_BIT(port->FA1R, (1 << BitIndex));// Desactivamos temporalmente el filtro correspondiente
 8000d2e:	68fb      	ldr	r3, [r7, #12]
 8000d30:	f8d3 321c 	ldr.w	r3, [r3, #540]	@ 0x21c
 8000d34:	78fa      	ldrb	r2, [r7, #3]
 8000d36:	2101      	movs	r1, #1
 8000d38:	fa01 f202 	lsl.w	r2, r1, r2
 8000d3c:	43d2      	mvns	r2, r2
 8000d3e:	401a      	ands	r2, r3
 8000d40:	68fb      	ldr	r3, [r7, #12]
 8000d42:	f8c3 221c 	str.w	r2, [r3, #540]	@ 0x21c

    // Configuramos los registros de filtro y máscara

    port->sFilterRegister[BitIndex].FR1 &= ~(0xFFFFFFFF);  // Limpia bits antes de escribir
 8000d46:	78fa      	ldrb	r2, [r7, #3]
 8000d48:	68fb      	ldr	r3, [r7, #12]
 8000d4a:	3248      	adds	r2, #72	@ 0x48
 8000d4c:	f853 3032 	ldr.w	r3, [r3, r2, lsl #3]
 8000d50:	78fa      	ldrb	r2, [r7, #3]
 8000d52:	68fb      	ldr	r3, [r7, #12]
 8000d54:	3248      	adds	r2, #72	@ 0x48
 8000d56:	2100      	movs	r1, #0
 8000d58:	f843 1032 	str.w	r1, [r3, r2, lsl #3]
    port->sFilterRegister[BitIndex].FR2 &= ~(0xFFFFFFFF);  // Limpia bits antes de escribir
 8000d5c:	78fb      	ldrb	r3, [r7, #3]
 8000d5e:	68fa      	ldr	r2, [r7, #12]
 8000d60:	3348      	adds	r3, #72	@ 0x48
 8000d62:	00db      	lsls	r3, r3, #3
 8000d64:	4413      	add	r3, r2
 8000d66:	685b      	ldr	r3, [r3, #4]
 8000d68:	78fb      	ldrb	r3, [r7, #3]
 8000d6a:	68fa      	ldr	r2, [r7, #12]
 8000d6c:	3348      	adds	r3, #72	@ 0x48
 8000d6e:	00db      	lsls	r3, r3, #3
 8000d70:	4413      	add	r3, r2
 8000d72:	2200      	movs	r2, #0
 8000d74:	605a      	str	r2, [r3, #4]

    port->sFilterRegister[BitIndex].FR1 = (ID & 0x7FF) << 21;  // Ajustar ID en bits 21 al 31
 8000d76:	78fa      	ldrb	r2, [r7, #3]
 8000d78:	68bb      	ldr	r3, [r7, #8]
 8000d7a:	0559      	lsls	r1, r3, #21
 8000d7c:	68fb      	ldr	r3, [r7, #12]
 8000d7e:	3248      	adds	r2, #72	@ 0x48
 8000d80:	f843 1032 	str.w	r1, [r3, r2, lsl #3]
    port->sFilterRegister[BitIndex].FR2 = (Mask & 0x7FF) << 21; // Ajustar Mask en bits 21 al 31
 8000d84:	78fb      	ldrb	r3, [r7, #3]
 8000d86:	687a      	ldr	r2, [r7, #4]
 8000d88:	0552      	lsls	r2, r2, #21
 8000d8a:	68f9      	ldr	r1, [r7, #12]
 8000d8c:	3348      	adds	r3, #72	@ 0x48
 8000d8e:	00db      	lsls	r3, r3, #3
 8000d90:	440b      	add	r3, r1
 8000d92:	605a      	str	r2, [r3, #4]

    // Reactivamos el filtro y salimos del modo de inicialización
    SET_BIT(port->FA1R, (1 << BitIndex));
 8000d94:	68fb      	ldr	r3, [r7, #12]
 8000d96:	f8d3 321c 	ldr.w	r3, [r3, #540]	@ 0x21c
 8000d9a:	78fa      	ldrb	r2, [r7, #3]
 8000d9c:	2101      	movs	r1, #1
 8000d9e:	fa01 f202 	lsl.w	r2, r1, r2
 8000da2:	431a      	orrs	r2, r3
 8000da4:	68fb      	ldr	r3, [r7, #12]
 8000da6:	f8c3 221c 	str.w	r2, [r3, #540]	@ 0x21c
  //  CLEAR_BIT(port->FMR, CAN_FMR_FINIT);
}
 8000daa:	bf00      	nop
 8000dac:	3714      	adds	r7, #20
 8000dae:	46bd      	mov	sp, r7
 8000db0:	f85d 7b04 	ldr.w	r7, [sp], #4
 8000db4:	4770      	bx	lr

08000db6 <CAN_MailboxConfig>:

void CAN_MailboxConfig(CAN_TypeDef *port, bool ExtendedID, uint32_t ID, bool Remote, uint8_t mailboxIndex){
 8000db6:	b480      	push	{r7}
 8000db8:	b085      	sub	sp, #20
 8000dba:	af00      	add	r7, sp, #0
 8000dbc:	60f8      	str	r0, [r7, #12]
 8000dbe:	607a      	str	r2, [r7, #4]
 8000dc0:	461a      	mov	r2, r3
 8000dc2:	460b      	mov	r3, r1
 8000dc4:	72fb      	strb	r3, [r7, #11]
 8000dc6:	4613      	mov	r3, r2
 8000dc8:	72bb      	strb	r3, [r7, #10]

	port->sTxMailBox[mailboxIndex].TIR &= ~(0xFFFFFFFF); //Limplia el registro TIR del milebox correspondiente
 8000dca:	7e3b      	ldrb	r3, [r7, #24]
 8000dcc:	68fa      	ldr	r2, [r7, #12]
 8000dce:	3318      	adds	r3, #24
 8000dd0:	011b      	lsls	r3, r3, #4
 8000dd2:	4413      	add	r3, r2
 8000dd4:	681b      	ldr	r3, [r3, #0]
 8000dd6:	7e3b      	ldrb	r3, [r7, #24]
 8000dd8:	68fa      	ldr	r2, [r7, #12]
 8000dda:	3318      	adds	r3, #24
 8000ddc:	011b      	lsls	r3, r3, #4
 8000dde:	4413      	add	r3, r2
 8000de0:	2200      	movs	r2, #0
 8000de2:	601a      	str	r2, [r3, #0]

    if (mailboxIndex > 2) {//Si se usa la funcion con un index superior a 2 sale de la funcion ya que solo tenemos 3 mailbox
 8000de4:	7e3b      	ldrb	r3, [r7, #24]
 8000de6:	2b02      	cmp	r3, #2
 8000de8:	d836      	bhi.n	8000e58 <CAN_MailboxConfig+0xa2>
        return;
    }
    // Configuramos el bit correspondiente utilizando isExtendedID para configurar IDE y cargar el identificador
    if (ExtendedID) {
 8000dea:	7afb      	ldrb	r3, [r7, #11]
 8000dec:	2b00      	cmp	r3, #0
 8000dee:	d00a      	beq.n	8000e06 <CAN_MailboxConfig+0x50>
        port->sTxMailBox[mailboxIndex].TIR = (ID << 3) | (1 << 2); // ID extendida: ID en bits 31:3, IDE en bit 2
 8000df0:	687b      	ldr	r3, [r7, #4]
 8000df2:	00da      	lsls	r2, r3, #3
 8000df4:	7e3b      	ldrb	r3, [r7, #24]
 8000df6:	f042 0204 	orr.w	r2, r2, #4
 8000dfa:	68f9      	ldr	r1, [r7, #12]
 8000dfc:	3318      	adds	r3, #24
 8000dfe:	011b      	lsls	r3, r3, #4
 8000e00:	440b      	add	r3, r1
 8000e02:	601a      	str	r2, [r3, #0]
 8000e04:	e007      	b.n	8000e16 <CAN_MailboxConfig+0x60>
    } else {
        port->sTxMailBox[mailboxIndex].TIR = (ID << 21); // ID estándar: ID en bits 31:21, IDE desactivado
 8000e06:	7e3b      	ldrb	r3, [r7, #24]
 8000e08:	687a      	ldr	r2, [r7, #4]
 8000e0a:	0552      	lsls	r2, r2, #21
 8000e0c:	68f9      	ldr	r1, [r7, #12]
 8000e0e:	3318      	adds	r3, #24
 8000e10:	011b      	lsls	r3, r3, #4
 8000e12:	440b      	add	r3, r1
 8000e14:	601a      	str	r2, [r3, #0]
    }

    // Configuramos RTR para indicar si es trama de datos o remota
    if (Remote) {
 8000e16:	7abb      	ldrb	r3, [r7, #10]
 8000e18:	2b00      	cmp	r3, #0
 8000e1a:	d00e      	beq.n	8000e3a <CAN_MailboxConfig+0x84>
        SET_BIT(port->sTxMailBox[mailboxIndex].TIR, CAN_TI0R_RTR); // Activa bit RTR para trama remota
 8000e1c:	7e3b      	ldrb	r3, [r7, #24]
 8000e1e:	68fa      	ldr	r2, [r7, #12]
 8000e20:	3318      	adds	r3, #24
 8000e22:	011b      	lsls	r3, r3, #4
 8000e24:	4413      	add	r3, r2
 8000e26:	681a      	ldr	r2, [r3, #0]
 8000e28:	7e3b      	ldrb	r3, [r7, #24]
 8000e2a:	f042 0202 	orr.w	r2, r2, #2
 8000e2e:	68f9      	ldr	r1, [r7, #12]
 8000e30:	3318      	adds	r3, #24
 8000e32:	011b      	lsls	r3, r3, #4
 8000e34:	440b      	add	r3, r1
 8000e36:	601a      	str	r2, [r3, #0]
 8000e38:	e00f      	b.n	8000e5a <CAN_MailboxConfig+0xa4>
    } else {
        CLEAR_BIT(port->sTxMailBox[mailboxIndex].TIR, CAN_TI0R_RTR); // Desactiva bit RTR para trama de datos
 8000e3a:	7e3b      	ldrb	r3, [r7, #24]
 8000e3c:	68fa      	ldr	r2, [r7, #12]
 8000e3e:	3318      	adds	r3, #24
 8000e40:	011b      	lsls	r3, r3, #4
 8000e42:	4413      	add	r3, r2
 8000e44:	681a      	ldr	r2, [r3, #0]
 8000e46:	7e3b      	ldrb	r3, [r7, #24]
 8000e48:	f022 0202 	bic.w	r2, r2, #2
 8000e4c:	68f9      	ldr	r1, [r7, #12]
 8000e4e:	3318      	adds	r3, #24
 8000e50:	011b      	lsls	r3, r3, #4
 8000e52:	440b      	add	r3, r1
 8000e54:	601a      	str	r2, [r3, #0]
 8000e56:	e000      	b.n	8000e5a <CAN_MailboxConfig+0xa4>
        return;
 8000e58:	bf00      	nop
    }
}
 8000e5a:	3714      	adds	r7, #20
 8000e5c:	46bd      	mov	sp, r7
 8000e5e:	f85d 7b04 	ldr.w	r7, [sp], #4
 8000e62:	4770      	bx	lr

08000e64 <CAN_SendData>:


void CAN_SendData(CAN_TypeDef *port, uint8_t DLC, uint64_t data, uint8_t mailboxIndex) {
 8000e64:	b480      	push	{r7}
 8000e66:	b085      	sub	sp, #20
 8000e68:	af00      	add	r7, sp, #0
 8000e6a:	60f8      	str	r0, [r7, #12]
 8000e6c:	e9c7 2300 	strd	r2, r3, [r7]
 8000e70:	460b      	mov	r3, r1
 8000e72:	72fb      	strb	r3, [r7, #11]

	port->sTxMailBox[mailboxIndex].TDTR &= ~(0xFFFFFFFF); //Limpia valores de TDTR
 8000e74:	7e3b      	ldrb	r3, [r7, #24]
 8000e76:	68fa      	ldr	r2, [r7, #12]
 8000e78:	3318      	adds	r3, #24
 8000e7a:	011b      	lsls	r3, r3, #4
 8000e7c:	4413      	add	r3, r2
 8000e7e:	3304      	adds	r3, #4
 8000e80:	681b      	ldr	r3, [r3, #0]
 8000e82:	7e3b      	ldrb	r3, [r7, #24]
 8000e84:	68fa      	ldr	r2, [r7, #12]
 8000e86:	3318      	adds	r3, #24
 8000e88:	011b      	lsls	r3, r3, #4
 8000e8a:	4413      	add	r3, r2
 8000e8c:	3304      	adds	r3, #4
 8000e8e:	2200      	movs	r2, #0
 8000e90:	601a      	str	r2, [r3, #0]
	port->sTxMailBox[mailboxIndex].TDLR &= ~(0xFFFFFFFF); //Limpia valores de TDLR
 8000e92:	7e3b      	ldrb	r3, [r7, #24]
 8000e94:	68fa      	ldr	r2, [r7, #12]
 8000e96:	011b      	lsls	r3, r3, #4
 8000e98:	4413      	add	r3, r2
 8000e9a:	f503 73c4 	add.w	r3, r3, #392	@ 0x188
 8000e9e:	681b      	ldr	r3, [r3, #0]
 8000ea0:	7e3b      	ldrb	r3, [r7, #24]
 8000ea2:	68fa      	ldr	r2, [r7, #12]
 8000ea4:	011b      	lsls	r3, r3, #4
 8000ea6:	4413      	add	r3, r2
 8000ea8:	f503 73c4 	add.w	r3, r3, #392	@ 0x188
 8000eac:	2200      	movs	r2, #0
 8000eae:	601a      	str	r2, [r3, #0]
	port->sTxMailBox[mailboxIndex].TDHR &= ~(0xFFFFFFFF); //Limpia calores de TDHR
 8000eb0:	7e3b      	ldrb	r3, [r7, #24]
 8000eb2:	68fa      	ldr	r2, [r7, #12]
 8000eb4:	011b      	lsls	r3, r3, #4
 8000eb6:	4413      	add	r3, r2
 8000eb8:	f503 73c6 	add.w	r3, r3, #396	@ 0x18c
 8000ebc:	681b      	ldr	r3, [r3, #0]
 8000ebe:	7e3b      	ldrb	r3, [r7, #24]
 8000ec0:	68fa      	ldr	r2, [r7, #12]
 8000ec2:	011b      	lsls	r3, r3, #4
 8000ec4:	4413      	add	r3, r2
 8000ec6:	f503 73c6 	add.w	r3, r3, #396	@ 0x18c
 8000eca:	2200      	movs	r2, #0
 8000ecc:	601a      	str	r2, [r3, #0]
    if (mailboxIndex > 2) {
 8000ece:	7e3b      	ldrb	r3, [r7, #24]
 8000ed0:	2b02      	cmp	r3, #2
 8000ed2:	d822      	bhi.n	8000f1a <CAN_SendData+0xb6>
        return;
    }
    port->sTxMailBox[mailboxIndex].TDTR = DLC & 0xF;
 8000ed4:	7afa      	ldrb	r2, [r7, #11]
 8000ed6:	7e3b      	ldrb	r3, [r7, #24]
 8000ed8:	f002 020f 	and.w	r2, r2, #15
 8000edc:	68f9      	ldr	r1, [r7, #12]
 8000ede:	3318      	adds	r3, #24
 8000ee0:	011b      	lsls	r3, r3, #4
 8000ee2:	440b      	add	r3, r1
 8000ee4:	3304      	adds	r3, #4
 8000ee6:	601a      	str	r2, [r3, #0]
    port->sTxMailBox[mailboxIndex].TDLR = data & 0xFFFFFFFF;
 8000ee8:	7e3b      	ldrb	r3, [r7, #24]
 8000eea:	683a      	ldr	r2, [r7, #0]
 8000eec:	68f9      	ldr	r1, [r7, #12]
 8000eee:	011b      	lsls	r3, r3, #4
 8000ef0:	440b      	add	r3, r1
 8000ef2:	f503 73c4 	add.w	r3, r3, #392	@ 0x188
 8000ef6:	601a      	str	r2, [r3, #0]
    port->sTxMailBox[mailboxIndex].TDHR = (data >> 32) & 0xFFFFFFFF;
 8000ef8:	e9d7 0100 	ldrd	r0, r1, [r7]
 8000efc:	f04f 0200 	mov.w	r2, #0
 8000f00:	f04f 0300 	mov.w	r3, #0
 8000f04:	000a      	movs	r2, r1
 8000f06:	2300      	movs	r3, #0
 8000f08:	7e39      	ldrb	r1, [r7, #24]
 8000f0a:	4610      	mov	r0, r2
 8000f0c:	68fa      	ldr	r2, [r7, #12]
 8000f0e:	010b      	lsls	r3, r1, #4
 8000f10:	4413      	add	r3, r2
 8000f12:	f503 73c6 	add.w	r3, r3, #396	@ 0x18c
 8000f16:	6018      	str	r0, [r3, #0]
 8000f18:	e000      	b.n	8000f1c <CAN_SendData+0xb8>
        return;
 8000f1a:	bf00      	nop
}
 8000f1c:	3714      	adds	r7, #20
 8000f1e:	46bd      	mov	sp, r7
 8000f20:	f85d 7b04 	ldr.w	r7, [sp], #4
 8000f24:	4770      	bx	lr

08000f26 <CANx_EnFIFO1Ints>:

    return flag;
}


void CANx_EnFIFO1Ints(CAN_TypeDef * port){
 8000f26:	b480      	push	{r7}
 8000f28:	b083      	sub	sp, #12
 8000f2a:	af00      	add	r7, sp, #0
 8000f2c:	6078      	str	r0, [r7, #4]
	SET_BIT(port->IER, CAN_IER_FMPIE1|CAN_IER_FFIE1|CAN_IER_FOVIE1);
 8000f2e:	687b      	ldr	r3, [r7, #4]
 8000f30:	695b      	ldr	r3, [r3, #20]
 8000f32:	f043 0270 	orr.w	r2, r3, #112	@ 0x70
 8000f36:	687b      	ldr	r3, [r7, #4]
 8000f38:	615a      	str	r2, [r3, #20]
}
 8000f3a:	bf00      	nop
 8000f3c:	370c      	adds	r7, #12
 8000f3e:	46bd      	mov	sp, r7
 8000f40:	f85d 7b04 	ldr.w	r7, [sp], #4
 8000f44:	4770      	bx	lr

08000f46 <CANx_EnFIFO0Ints>:

void CANx_EnFIFO0Ints(CAN_TypeDef * port){
 8000f46:	b480      	push	{r7}
 8000f48:	b083      	sub	sp, #12
 8000f4a:	af00      	add	r7, sp, #0
 8000f4c:	6078      	str	r0, [r7, #4]
	SET_BIT(port->IER, CAN_IER_FMPIE0|CAN_IER_FFIE0|CAN_IER_FOVIE0);
 8000f4e:	687b      	ldr	r3, [r7, #4]
 8000f50:	695b      	ldr	r3, [r3, #20]
 8000f52:	f043 020e 	orr.w	r2, r3, #14
 8000f56:	687b      	ldr	r3, [r7, #4]
 8000f58:	615a      	str	r2, [r3, #20]
}
 8000f5a:	bf00      	nop
 8000f5c:	370c      	adds	r7, #12
 8000f5e:	46bd      	mov	sp, r7
 8000f60:	f85d 7b04 	ldr.w	r7, [sp], #4
 8000f64:	4770      	bx	lr

08000f66 <CANx_GetLEC>:



uint8_t CANx_GetLEC(CAN_TypeDef * port){
 8000f66:	b480      	push	{r7}
 8000f68:	b085      	sub	sp, #20
 8000f6a:	af00      	add	r7, sp, #0
 8000f6c:	6078      	str	r0, [r7, #4]
	uint8_t lec = (port->ESR & CAN_ESR_LEC_Msk) >> CAN_ESR_LEC_Pos; // Leer y desplazar campo LEC
 8000f6e:	687b      	ldr	r3, [r7, #4]
 8000f70:	699b      	ldr	r3, [r3, #24]
 8000f72:	091b      	lsrs	r3, r3, #4
 8000f74:	b2db      	uxtb	r3, r3
 8000f76:	f003 0307 	and.w	r3, r3, #7
 8000f7a:	73fb      	strb	r3, [r7, #15]
	return lec;
 8000f7c:	7bfb      	ldrb	r3, [r7, #15]
}
 8000f7e:	4618      	mov	r0, r3
 8000f80:	3714      	adds	r7, #20
 8000f82:	46bd      	mov	sp, r7
 8000f84:	f85d 7b04 	ldr.w	r7, [sp], #4
 8000f88:	4770      	bx	lr

08000f8a <CAN1_Rx0_FIFOx>:


void CAN1_Rx0_FIFOx(CAN_TypeDef *port, CAN_FIFOMailBox_TypeDef *fifo) {
 8000f8a:	b580      	push	{r7, lr}
 8000f8c:	b082      	sub	sp, #8
 8000f8e:	af00      	add	r7, sp, #0
 8000f90:	6078      	str	r0, [r7, #4]
 8000f92:	6039      	str	r1, [r7, #0]
    if (port->RF0R & CAN_RF0R_FMP0) { // Nuevo mensaje en FIFO
 8000f94:	687b      	ldr	r3, [r7, #4]
 8000f96:	68db      	ldr	r3, [r3, #12]
 8000f98:	f003 0303 	and.w	r3, r3, #3
 8000f9c:	2b00      	cmp	r3, #0
 8000f9e:	d027      	beq.n	8000ff0 <CAN1_Rx0_FIFOx+0x66>
        // Verificar el Last Error Code (LEC)
        if (CANx_GetLEC(port) == CAN_LEC_NO_ERROR) { // No hubo errores en la recepción
 8000fa0:	6878      	ldr	r0, [r7, #4]
 8000fa2:	f7ff ffe0 	bl	8000f66 <CANx_GetLEC>
 8000fa6:	4603      	mov	r3, r0
 8000fa8:	2b00      	cmp	r3, #0
 8000faa:	d11a      	bne.n	8000fe2 <CAN1_Rx0_FIFOx+0x58>
            // Copiar los datos del FIFO a la estructura fifo
            fifo->RIR = port->sFIFOMailBox[0].RIR;      // Identificador del mensaje
 8000fac:	687b      	ldr	r3, [r7, #4]
 8000fae:	f8d3 21b0 	ldr.w	r2, [r3, #432]	@ 0x1b0
 8000fb2:	683b      	ldr	r3, [r7, #0]
 8000fb4:	601a      	str	r2, [r3, #0]
            fifo->RDTR = port->sFIFOMailBox[0].RDTR;    // Código de longitud de datos y FMI
 8000fb6:	687b      	ldr	r3, [r7, #4]
 8000fb8:	f8d3 21b4 	ldr.w	r2, [r3, #436]	@ 0x1b4
 8000fbc:	683b      	ldr	r3, [r7, #0]
 8000fbe:	605a      	str	r2, [r3, #4]
            fifo->RDLR = port->sFIFOMailBox[0].RDLR;    // Datos (Low)
 8000fc0:	687b      	ldr	r3, [r7, #4]
 8000fc2:	f8d3 21b8 	ldr.w	r2, [r3, #440]	@ 0x1b8
 8000fc6:	683b      	ldr	r3, [r7, #0]
 8000fc8:	609a      	str	r2, [r3, #8]
            fifo->RDHR = port->sFIFOMailBox[0].RDHR;    // Datos (High)
 8000fca:	687b      	ldr	r3, [r7, #4]
 8000fcc:	f8d3 21bc 	ldr.w	r2, [r3, #444]	@ 0x1bc
 8000fd0:	683b      	ldr	r3, [r7, #0]
 8000fd2:	60da      	str	r2, [r3, #12]
            // Manejo del error: descartar el mensaje y liberar el FIFO
            SET_BIT(port->RF0R, CAN_RF0R_RFOM0);
            return; // Salir de la función sin llenar la estructura
        }
        // Liberar el FIFO para el siguiente mensaje
        SET_BIT(port->RF0R, CAN_RF0R_RFOM0);
 8000fd4:	687b      	ldr	r3, [r7, #4]
 8000fd6:	68db      	ldr	r3, [r3, #12]
 8000fd8:	f043 0220 	orr.w	r2, r3, #32
 8000fdc:	687b      	ldr	r3, [r7, #4]
 8000fde:	60da      	str	r2, [r3, #12]
 8000fe0:	e04d      	b.n	800107e <CAN1_Rx0_FIFOx+0xf4>
            SET_BIT(port->RF0R, CAN_RF0R_RFOM0);
 8000fe2:	687b      	ldr	r3, [r7, #4]
 8000fe4:	68db      	ldr	r3, [r3, #12]
 8000fe6:	f043 0220 	orr.w	r2, r3, #32
 8000fea:	687b      	ldr	r3, [r7, #4]
 8000fec:	60da      	str	r2, [r3, #12]
            return; // Salir de la función sin llenar la estructura
 8000fee:	e046      	b.n	800107e <CAN1_Rx0_FIFOx+0xf4>

    } else if (port->RF0R & CAN_RF0R_FULL0) { // FIFO lleno
 8000ff0:	687b      	ldr	r3, [r7, #4]
 8000ff2:	68db      	ldr	r3, [r3, #12]
 8000ff4:	f003 0308 	and.w	r3, r3, #8
 8000ff8:	2b00      	cmp	r3, #0
 8000ffa:	d01a      	beq.n	8001032 <CAN1_Rx0_FIFOx+0xa8>
        // Copiar los datos del FIFO a la estructura fifo
        fifo->RIR = port->sFIFOMailBox[0].RIR;
 8000ffc:	687b      	ldr	r3, [r7, #4]
 8000ffe:	f8d3 21b0 	ldr.w	r2, [r3, #432]	@ 0x1b0
 8001002:	683b      	ldr	r3, [r7, #0]
 8001004:	601a      	str	r2, [r3, #0]
        fifo->RDTR = port->sFIFOMailBox[0].RDTR;
 8001006:	687b      	ldr	r3, [r7, #4]
 8001008:	f8d3 21b4 	ldr.w	r2, [r3, #436]	@ 0x1b4
 800100c:	683b      	ldr	r3, [r7, #0]
 800100e:	605a      	str	r2, [r3, #4]
        fifo->RDLR = port->sFIFOMailBox[0].RDLR;
 8001010:	687b      	ldr	r3, [r7, #4]
 8001012:	f8d3 21b8 	ldr.w	r2, [r3, #440]	@ 0x1b8
 8001016:	683b      	ldr	r3, [r7, #0]
 8001018:	609a      	str	r2, [r3, #8]
        fifo->RDHR = port->sFIFOMailBox[0].RDHR;
 800101a:	687b      	ldr	r3, [r7, #4]
 800101c:	f8d3 21bc 	ldr.w	r2, [r3, #444]	@ 0x1bc
 8001020:	683b      	ldr	r3, [r7, #0]
 8001022:	60da      	str	r2, [r3, #12]
        // Liberar el FIFO para evitar la pérdida de datos
        SET_BIT(port->RF0R, CAN_RF0R_RFOM0);
 8001024:	687b      	ldr	r3, [r7, #4]
 8001026:	68db      	ldr	r3, [r3, #12]
 8001028:	f043 0220 	orr.w	r2, r3, #32
 800102c:	687b      	ldr	r3, [r7, #4]
 800102e:	60da      	str	r2, [r3, #12]
 8001030:	e025      	b.n	800107e <CAN1_Rx0_FIFOx+0xf4>

    } else if (port->RF0R & CAN_RF0R_FOVR0) { // Sobrecarga en el FIFO
 8001032:	687b      	ldr	r3, [r7, #4]
 8001034:	68db      	ldr	r3, [r3, #12]
 8001036:	f003 0310 	and.w	r3, r3, #16
 800103a:	2b00      	cmp	r3, #0
 800103c:	d01f      	beq.n	800107e <CAN1_Rx0_FIFOx+0xf4>
        // Manejar el estado de sobrecarga y limpiar el bit de sobrecarga
        CLEAR_BIT(port->RF0R, CAN_RF0R_FOVR0);
 800103e:	687b      	ldr	r3, [r7, #4]
 8001040:	68db      	ldr	r3, [r3, #12]
 8001042:	f023 0210 	bic.w	r2, r3, #16
 8001046:	687b      	ldr	r3, [r7, #4]
 8001048:	60da      	str	r2, [r3, #12]
        // Copiar los datos del FIFO a la estructura fifo
        fifo->RIR = port->sFIFOMailBox[0].RIR;
 800104a:	687b      	ldr	r3, [r7, #4]
 800104c:	f8d3 21b0 	ldr.w	r2, [r3, #432]	@ 0x1b0
 8001050:	683b      	ldr	r3, [r7, #0]
 8001052:	601a      	str	r2, [r3, #0]
        fifo->RDTR = port->sFIFOMailBox[0].RDTR;
 8001054:	687b      	ldr	r3, [r7, #4]
 8001056:	f8d3 21b4 	ldr.w	r2, [r3, #436]	@ 0x1b4
 800105a:	683b      	ldr	r3, [r7, #0]
 800105c:	605a      	str	r2, [r3, #4]
        fifo->RDLR = port->sFIFOMailBox[0].RDLR;
 800105e:	687b      	ldr	r3, [r7, #4]
 8001060:	f8d3 21b8 	ldr.w	r2, [r3, #440]	@ 0x1b8
 8001064:	683b      	ldr	r3, [r7, #0]
 8001066:	609a      	str	r2, [r3, #8]
        fifo->RDHR = port->sFIFOMailBox[0].RDHR;
 8001068:	687b      	ldr	r3, [r7, #4]
 800106a:	f8d3 21bc 	ldr.w	r2, [r3, #444]	@ 0x1bc
 800106e:	683b      	ldr	r3, [r7, #0]
 8001070:	60da      	str	r2, [r3, #12]
        // Liberar el FIFO
        SET_BIT(port->RF0R, CAN_RF0R_RFOM0);
 8001072:	687b      	ldr	r3, [r7, #4]
 8001074:	68db      	ldr	r3, [r3, #12]
 8001076:	f043 0220 	orr.w	r2, r3, #32
 800107a:	687b      	ldr	r3, [r7, #4]
 800107c:	60da      	str	r2, [r3, #12]
    }
}
 800107e:	3708      	adds	r7, #8
 8001080:	46bd      	mov	sp, r7
 8001082:	bd80      	pop	{r7, pc}

08001084 <CAN1_Rx1_FIFOx>:


void CAN1_Rx1_FIFOx(CAN_TypeDef *port, CAN_FIFOMailBox_TypeDef *fifo) {
 8001084:	b580      	push	{r7, lr}
 8001086:	b082      	sub	sp, #8
 8001088:	af00      	add	r7, sp, #0
 800108a:	6078      	str	r0, [r7, #4]
 800108c:	6039      	str	r1, [r7, #0]
    if (port->RF1R & CAN_RF1R_FMP1) { // Nuevo mensaje en FIFO
 800108e:	687b      	ldr	r3, [r7, #4]
 8001090:	691b      	ldr	r3, [r3, #16]
 8001092:	f003 0303 	and.w	r3, r3, #3
 8001096:	2b00      	cmp	r3, #0
 8001098:	d027      	beq.n	80010ea <CAN1_Rx1_FIFOx+0x66>
        // Verificar el Last Error Code (LEC)
        if (CANx_GetLEC(port) == CAN_LEC_NO_ERROR) { // No hubo errores en la recepción
 800109a:	6878      	ldr	r0, [r7, #4]
 800109c:	f7ff ff63 	bl	8000f66 <CANx_GetLEC>
 80010a0:	4603      	mov	r3, r0
 80010a2:	2b00      	cmp	r3, #0
 80010a4:	d11a      	bne.n	80010dc <CAN1_Rx1_FIFOx+0x58>
            // Copiar los datos del FIFO a la estructura fifo
            fifo->RIR = port->sFIFOMailBox[1].RIR;      // Identificador del mensaje
 80010a6:	687b      	ldr	r3, [r7, #4]
 80010a8:	f8d3 21c0 	ldr.w	r2, [r3, #448]	@ 0x1c0
 80010ac:	683b      	ldr	r3, [r7, #0]
 80010ae:	601a      	str	r2, [r3, #0]
            fifo->RDTR = port->sFIFOMailBox[1].RDTR;    // Código de longitud de datos y FMI
 80010b0:	687b      	ldr	r3, [r7, #4]
 80010b2:	f8d3 21c4 	ldr.w	r2, [r3, #452]	@ 0x1c4
 80010b6:	683b      	ldr	r3, [r7, #0]
 80010b8:	605a      	str	r2, [r3, #4]
            fifo->RDLR = port->sFIFOMailBox[1].RDLR;    // Datos (Low)
 80010ba:	687b      	ldr	r3, [r7, #4]
 80010bc:	f8d3 21c8 	ldr.w	r2, [r3, #456]	@ 0x1c8
 80010c0:	683b      	ldr	r3, [r7, #0]
 80010c2:	609a      	str	r2, [r3, #8]
            fifo->RDHR = port->sFIFOMailBox[1].RDHR;    // Datos (High)
 80010c4:	687b      	ldr	r3, [r7, #4]
 80010c6:	f8d3 21cc 	ldr.w	r2, [r3, #460]	@ 0x1cc
 80010ca:	683b      	ldr	r3, [r7, #0]
 80010cc:	60da      	str	r2, [r3, #12]
            // Manejo del error: descartar el mensaje y liberar el FIFO
            SET_BIT(port->RF1R, CAN_RF1R_RFOM1);
            return; // Salir de la función sin llenar la estructura
        }
        // Liberar el FIFO para el siguiente mensaje
        SET_BIT(port->RF1R, CAN_RF1R_RFOM1);
 80010ce:	687b      	ldr	r3, [r7, #4]
 80010d0:	691b      	ldr	r3, [r3, #16]
 80010d2:	f043 0220 	orr.w	r2, r3, #32
 80010d6:	687b      	ldr	r3, [r7, #4]
 80010d8:	611a      	str	r2, [r3, #16]
 80010da:	e04d      	b.n	8001178 <CAN1_Rx1_FIFOx+0xf4>
            SET_BIT(port->RF1R, CAN_RF1R_RFOM1);
 80010dc:	687b      	ldr	r3, [r7, #4]
 80010de:	691b      	ldr	r3, [r3, #16]
 80010e0:	f043 0220 	orr.w	r2, r3, #32
 80010e4:	687b      	ldr	r3, [r7, #4]
 80010e6:	611a      	str	r2, [r3, #16]
            return; // Salir de la función sin llenar la estructura
 80010e8:	e046      	b.n	8001178 <CAN1_Rx1_FIFOx+0xf4>

    } else if (port->RF1R & CAN_RF1R_FULL1) { // FIFO lleno
 80010ea:	687b      	ldr	r3, [r7, #4]
 80010ec:	691b      	ldr	r3, [r3, #16]
 80010ee:	f003 0308 	and.w	r3, r3, #8
 80010f2:	2b00      	cmp	r3, #0
 80010f4:	d01a      	beq.n	800112c <CAN1_Rx1_FIFOx+0xa8>
        // Copiar los datos del FIFO a la estructura fifo
        fifo->RIR = port->sFIFOMailBox[1].RIR;
 80010f6:	687b      	ldr	r3, [r7, #4]
 80010f8:	f8d3 21c0 	ldr.w	r2, [r3, #448]	@ 0x1c0
 80010fc:	683b      	ldr	r3, [r7, #0]
 80010fe:	601a      	str	r2, [r3, #0]
        fifo->RDTR = port->sFIFOMailBox[1].RDTR;
 8001100:	687b      	ldr	r3, [r7, #4]
 8001102:	f8d3 21c4 	ldr.w	r2, [r3, #452]	@ 0x1c4
 8001106:	683b      	ldr	r3, [r7, #0]
 8001108:	605a      	str	r2, [r3, #4]
        fifo->RDLR = port->sFIFOMailBox[1].RDLR;
 800110a:	687b      	ldr	r3, [r7, #4]
 800110c:	f8d3 21c8 	ldr.w	r2, [r3, #456]	@ 0x1c8
 8001110:	683b      	ldr	r3, [r7, #0]
 8001112:	609a      	str	r2, [r3, #8]
        fifo->RDHR = port->sFIFOMailBox[1].RDHR;
 8001114:	687b      	ldr	r3, [r7, #4]
 8001116:	f8d3 21cc 	ldr.w	r2, [r3, #460]	@ 0x1cc
 800111a:	683b      	ldr	r3, [r7, #0]
 800111c:	60da      	str	r2, [r3, #12]
        // Liberar el FIFO para evitar la pérdida de datos
        SET_BIT(port->RF1R, CAN_RF1R_RFOM1);
 800111e:	687b      	ldr	r3, [r7, #4]
 8001120:	691b      	ldr	r3, [r3, #16]
 8001122:	f043 0220 	orr.w	r2, r3, #32
 8001126:	687b      	ldr	r3, [r7, #4]
 8001128:	611a      	str	r2, [r3, #16]
 800112a:	e025      	b.n	8001178 <CAN1_Rx1_FIFOx+0xf4>

    } else if (port->RF1R & CAN_RF1R_FOVR1) { // Sobrecarga en el FIFO
 800112c:	687b      	ldr	r3, [r7, #4]
 800112e:	691b      	ldr	r3, [r3, #16]
 8001130:	f003 0310 	and.w	r3, r3, #16
 8001134:	2b00      	cmp	r3, #0
 8001136:	d01f      	beq.n	8001178 <CAN1_Rx1_FIFOx+0xf4>
        // Manejar el estado de sobrecarga y limpiar el bit de sobrecarga
        CLEAR_BIT(port->RF1R, CAN_RF1R_FOVR1);
 8001138:	687b      	ldr	r3, [r7, #4]
 800113a:	691b      	ldr	r3, [r3, #16]
 800113c:	f023 0210 	bic.w	r2, r3, #16
 8001140:	687b      	ldr	r3, [r7, #4]
 8001142:	611a      	str	r2, [r3, #16]
        // Copiar los datos del FIFO a la estructura fifo
        fifo->RIR = port->sFIFOMailBox[1].RIR;
 8001144:	687b      	ldr	r3, [r7, #4]
 8001146:	f8d3 21c0 	ldr.w	r2, [r3, #448]	@ 0x1c0
 800114a:	683b      	ldr	r3, [r7, #0]
 800114c:	601a      	str	r2, [r3, #0]
        fifo->RDTR = port->sFIFOMailBox[1].RDTR;
 800114e:	687b      	ldr	r3, [r7, #4]
 8001150:	f8d3 21c4 	ldr.w	r2, [r3, #452]	@ 0x1c4
 8001154:	683b      	ldr	r3, [r7, #0]
 8001156:	605a      	str	r2, [r3, #4]
        fifo->RDLR = port->sFIFOMailBox[1].RDLR;
 8001158:	687b      	ldr	r3, [r7, #4]
 800115a:	f8d3 21c8 	ldr.w	r2, [r3, #456]	@ 0x1c8
 800115e:	683b      	ldr	r3, [r7, #0]
 8001160:	609a      	str	r2, [r3, #8]
        fifo->RDHR = port->sFIFOMailBox[1].RDHR;
 8001162:	687b      	ldr	r3, [r7, #4]
 8001164:	f8d3 21cc 	ldr.w	r2, [r3, #460]	@ 0x1cc
 8001168:	683b      	ldr	r3, [r7, #0]
 800116a:	60da      	str	r2, [r3, #12]
        // Liberar el FIFO
        SET_BIT(port->RF0R, CAN_RF1R_RFOM1);
 800116c:	687b      	ldr	r3, [r7, #4]
 800116e:	68db      	ldr	r3, [r3, #12]
 8001170:	f043 0220 	orr.w	r2, r3, #32
 8001174:	687b      	ldr	r3, [r7, #4]
 8001176:	60da      	str	r2, [r3, #12]
    }
}
 8001178:	3708      	adds	r7, #8
 800117a:	46bd      	mov	sp, r7
 800117c:	bd80      	pop	{r7, pc}

0800117e <GPIOx_InitAF>:
#define GPIO_OTYPER_OD                   1UL //Very High Speed

//Inicializa en la función alterna los puertos

                              /*Puerto	-	OTYPER	-	OSPEEDR		-	AFR		-	PUR*/
void GPIOx_InitAF(GPIO_TypeDef *Port_, uint8_t Pin_, uint8_t OTYPER_, uint8_t OSPEEDR_, uint8_t AFR_, bool PUR){ //L45
 800117e:	b480      	push	{r7}
 8001180:	b083      	sub	sp, #12
 8001182:	af00      	add	r7, sp, #0
 8001184:	6078      	str	r0, [r7, #4]
 8001186:	4608      	mov	r0, r1
 8001188:	4611      	mov	r1, r2
 800118a:	461a      	mov	r2, r3
 800118c:	4603      	mov	r3, r0
 800118e:	70fb      	strb	r3, [r7, #3]
 8001190:	460b      	mov	r3, r1
 8001192:	70bb      	strb	r3, [r7, #2]
 8001194:	4613      	mov	r3, r2
 8001196:	707b      	strb	r3, [r7, #1]
	CLEAR_BIT(Port_->MODER,(3 << (Pin_ * 2)));//Alternate Function on Pin x=1,...,15 /L45
 8001198:	687b      	ldr	r3, [r7, #4]
 800119a:	681b      	ldr	r3, [r3, #0]
 800119c:	78fa      	ldrb	r2, [r7, #3]
 800119e:	0052      	lsls	r2, r2, #1
 80011a0:	2103      	movs	r1, #3
 80011a2:	fa01 f202 	lsl.w	r2, r1, r2
 80011a6:	43d2      	mvns	r2, r2
 80011a8:	401a      	ands	r2, r3
 80011aa:	687b      	ldr	r3, [r7, #4]
 80011ac:	601a      	str	r2, [r3, #0]
	SET_BIT(Port_->MODER,(GPIO_MODER_AF << (Pin_ * 2)));//Alternate Function on Pin x=1,...,15 /L45
 80011ae:	687b      	ldr	r3, [r7, #4]
 80011b0:	681a      	ldr	r2, [r3, #0]
 80011b2:	78fb      	ldrb	r3, [r7, #3]
 80011b4:	005b      	lsls	r3, r3, #1
 80011b6:	2102      	movs	r1, #2
 80011b8:	fa01 f303 	lsl.w	r3, r1, r3
 80011bc:	431a      	orrs	r2, r3
 80011be:	687b      	ldr	r3, [r7, #4]
 80011c0:	601a      	str	r2, [r3, #0]
	SET_BIT(Port_->OTYPER,((OTYPER_ & 1) << (Pin_)));//Opend Drain or push pull
 80011c2:	687b      	ldr	r3, [r7, #4]
 80011c4:	685b      	ldr	r3, [r3, #4]
 80011c6:	78ba      	ldrb	r2, [r7, #2]
 80011c8:	f002 0101 	and.w	r1, r2, #1
 80011cc:	78fa      	ldrb	r2, [r7, #3]
 80011ce:	fa01 f202 	lsl.w	r2, r1, r2
 80011d2:	431a      	orrs	r2, r3
 80011d4:	687b      	ldr	r3, [r7, #4]
 80011d6:	605a      	str	r2, [r3, #4]
	SET_BIT(Port_->OSPEEDR,(OSPEEDR_ << (Pin_ * 2)));//High Speed
 80011d8:	687b      	ldr	r3, [r7, #4]
 80011da:	689b      	ldr	r3, [r3, #8]
 80011dc:	7879      	ldrb	r1, [r7, #1]
 80011de:	78fa      	ldrb	r2, [r7, #3]
 80011e0:	0052      	lsls	r2, r2, #1
 80011e2:	fa01 f202 	lsl.w	r2, r1, r2
 80011e6:	431a      	orrs	r2, r3
 80011e8:	687b      	ldr	r3, [r7, #4]
 80011ea:	609a      	str	r2, [r3, #8]
	if(Pin_ > 7){
 80011ec:	78fb      	ldrb	r3, [r7, #3]
 80011ee:	2b07      	cmp	r3, #7
 80011f0:	d90b      	bls.n	800120a <GPIOx_InitAF+0x8c>
		SET_BIT(Port_->AFR[1],(AFR_ <<((Pin_ - 8) * 4)));
 80011f2:	687b      	ldr	r3, [r7, #4]
 80011f4:	6a5b      	ldr	r3, [r3, #36]	@ 0x24
 80011f6:	7c39      	ldrb	r1, [r7, #16]
 80011f8:	78fa      	ldrb	r2, [r7, #3]
 80011fa:	3a08      	subs	r2, #8
 80011fc:	0092      	lsls	r2, r2, #2
 80011fe:	fa01 f202 	lsl.w	r2, r1, r2
 8001202:	431a      	orrs	r2, r3
 8001204:	687b      	ldr	r3, [r7, #4]
 8001206:	625a      	str	r2, [r3, #36]	@ 0x24
 8001208:	e009      	b.n	800121e <GPIOx_InitAF+0xa0>
	}
	else{
		SET_BIT(Port_->AFR[0],(AFR_ << (Pin_ * 4)));
 800120a:	687b      	ldr	r3, [r7, #4]
 800120c:	6a1b      	ldr	r3, [r3, #32]
 800120e:	7c39      	ldrb	r1, [r7, #16]
 8001210:	78fa      	ldrb	r2, [r7, #3]
 8001212:	0092      	lsls	r2, r2, #2
 8001214:	fa01 f202 	lsl.w	r2, r1, r2
 8001218:	431a      	orrs	r2, r3
 800121a:	687b      	ldr	r3, [r7, #4]
 800121c:	621a      	str	r2, [r3, #32]
	}
	//Veificar IDR? Debe estar en 1 los puertos
	if(PUR){
 800121e:	7d3b      	ldrb	r3, [r7, #20]
 8001220:	2b00      	cmp	r3, #0
 8001222:	d00a      	beq.n	800123a <GPIOx_InitAF+0xbc>
		SET_BIT(Port_->PUPDR,(GPIO_PUPDR_PUPD0_0 << (Pin_ * 2)));//Resistencias Pull UP
 8001224:	687b      	ldr	r3, [r7, #4]
 8001226:	68da      	ldr	r2, [r3, #12]
 8001228:	78fb      	ldrb	r3, [r7, #3]
 800122a:	005b      	lsls	r3, r3, #1
 800122c:	2101      	movs	r1, #1
 800122e:	fa01 f303 	lsl.w	r3, r1, r3
 8001232:	431a      	orrs	r2, r3
 8001234:	687b      	ldr	r3, [r7, #4]
 8001236:	60da      	str	r2, [r3, #12]
	}
	else{
		CLEAR_BIT(Port_->PUPDR,(GPIO_PUPDR_PUPD0) << (Pin_ * 2));//Desactiva
	}

}
 8001238:	e00a      	b.n	8001250 <GPIOx_InitAF+0xd2>
		CLEAR_BIT(Port_->PUPDR,(GPIO_PUPDR_PUPD0) << (Pin_ * 2));//Desactiva
 800123a:	687b      	ldr	r3, [r7, #4]
 800123c:	68da      	ldr	r2, [r3, #12]
 800123e:	78fb      	ldrb	r3, [r7, #3]
 8001240:	005b      	lsls	r3, r3, #1
 8001242:	2103      	movs	r1, #3
 8001244:	fa01 f303 	lsl.w	r3, r1, r3
 8001248:	43db      	mvns	r3, r3
 800124a:	401a      	ands	r2, r3
 800124c:	687b      	ldr	r3, [r7, #4]
 800124e:	60da      	str	r2, [r3, #12]
}
 8001250:	bf00      	nop
 8001252:	370c      	adds	r7, #12
 8001254:	46bd      	mov	sp, r7
 8001256:	f85d 7b04 	ldr.w	r7, [sp], #4
 800125a:	4770      	bx	lr

0800125c <GPIOx_InitIO>:

void GPIOx_InitIO(GPIO_TypeDef *Port_, uint8_t Pin_, uint8_t IO, bool PUR){ //l45
 800125c:	b480      	push	{r7}
 800125e:	b083      	sub	sp, #12
 8001260:	af00      	add	r7, sp, #0
 8001262:	6078      	str	r0, [r7, #4]
 8001264:	4608      	mov	r0, r1
 8001266:	4611      	mov	r1, r2
 8001268:	461a      	mov	r2, r3
 800126a:	4603      	mov	r3, r0
 800126c:	70fb      	strb	r3, [r7, #3]
 800126e:	460b      	mov	r3, r1
 8001270:	70bb      	strb	r3, [r7, #2]
 8001272:	4613      	mov	r3, r2
 8001274:	707b      	strb	r3, [r7, #1]
	if(IO == GPIO_MODER_OUTPUT){
 8001276:	78bb      	ldrb	r3, [r7, #2]
 8001278:	2b01      	cmp	r3, #1
 800127a:	d115      	bne.n	80012a8 <GPIOx_InitIO+0x4c>
		CLEAR_BIT(Port_->MODER,(3 << (Pin_ * 2)));
 800127c:	687b      	ldr	r3, [r7, #4]
 800127e:	681b      	ldr	r3, [r3, #0]
 8001280:	78fa      	ldrb	r2, [r7, #3]
 8001282:	0052      	lsls	r2, r2, #1
 8001284:	2103      	movs	r1, #3
 8001286:	fa01 f202 	lsl.w	r2, r1, r2
 800128a:	43d2      	mvns	r2, r2
 800128c:	401a      	ands	r2, r3
 800128e:	687b      	ldr	r3, [r7, #4]
 8001290:	601a      	str	r2, [r3, #0]
		SET_BIT(Port_->MODER,(GPIO_MODER_OUTPUT << (Pin_ * 2))); // Salida
 8001292:	687b      	ldr	r3, [r7, #4]
 8001294:	681a      	ldr	r2, [r3, #0]
 8001296:	78fb      	ldrb	r3, [r7, #3]
 8001298:	005b      	lsls	r3, r3, #1
 800129a:	2101      	movs	r1, #1
 800129c:	fa01 f303 	lsl.w	r3, r1, r3
 80012a0:	431a      	orrs	r2, r3
 80012a2:	687b      	ldr	r3, [r7, #4]
 80012a4:	601a      	str	r2, [r3, #0]
 80012a6:	e00f      	b.n	80012c8 <GPIOx_InitIO+0x6c>
	}
	else{
		Port_->IDR &= 0;
 80012a8:	687b      	ldr	r3, [r7, #4]
 80012aa:	691b      	ldr	r3, [r3, #16]
 80012ac:	687b      	ldr	r3, [r7, #4]
 80012ae:	2200      	movs	r2, #0
 80012b0:	611a      	str	r2, [r3, #16]
		CLEAR_BIT(Port_->MODER,(0x3 << (Pin_ * 2))); // Entrada
 80012b2:	687b      	ldr	r3, [r7, #4]
 80012b4:	681b      	ldr	r3, [r3, #0]
 80012b6:	78fa      	ldrb	r2, [r7, #3]
 80012b8:	0052      	lsls	r2, r2, #1
 80012ba:	2103      	movs	r1, #3
 80012bc:	fa01 f202 	lsl.w	r2, r1, r2
 80012c0:	43d2      	mvns	r2, r2
 80012c2:	401a      	ands	r2, r3
 80012c4:	687b      	ldr	r3, [r7, #4]
 80012c6:	601a      	str	r2, [r3, #0]
	}
	if(PUR){
 80012c8:	787b      	ldrb	r3, [r7, #1]
 80012ca:	2b00      	cmp	r3, #0
 80012cc:	d00a      	beq.n	80012e4 <GPIOx_InitIO+0x88>
		SET_BIT(Port_->PUPDR,(GPIO_PUPDR_PUPD0_0 << (Pin_ * 2)));//Resistencias Pull UP
 80012ce:	687b      	ldr	r3, [r7, #4]
 80012d0:	68da      	ldr	r2, [r3, #12]
 80012d2:	78fb      	ldrb	r3, [r7, #3]
 80012d4:	005b      	lsls	r3, r3, #1
 80012d6:	2101      	movs	r1, #1
 80012d8:	fa01 f303 	lsl.w	r3, r1, r3
 80012dc:	431a      	orrs	r2, r3
 80012de:	687b      	ldr	r3, [r7, #4]
 80012e0:	60da      	str	r2, [r3, #12]
	}
	else{
		CLEAR_BIT(Port_->PUPDR,(GPIO_PUPDR_PUPD0) << (Pin_ * 2));//Desactiva
	}
}
 80012e2:	e00a      	b.n	80012fa <GPIOx_InitIO+0x9e>
		CLEAR_BIT(Port_->PUPDR,(GPIO_PUPDR_PUPD0) << (Pin_ * 2));//Desactiva
 80012e4:	687b      	ldr	r3, [r7, #4]
 80012e6:	68da      	ldr	r2, [r3, #12]
 80012e8:	78fb      	ldrb	r3, [r7, #3]
 80012ea:	005b      	lsls	r3, r3, #1
 80012ec:	2103      	movs	r1, #3
 80012ee:	fa01 f303 	lsl.w	r3, r1, r3
 80012f2:	43db      	mvns	r3, r3
 80012f4:	401a      	ands	r2, r3
 80012f6:	687b      	ldr	r3, [r7, #4]
 80012f8:	60da      	str	r2, [r3, #12]
}
 80012fa:	bf00      	nop
 80012fc:	370c      	adds	r7, #12
 80012fe:	46bd      	mov	sp, r7
 8001300:	f85d 7b04 	ldr.w	r7, [sp], #4
 8001304:	4770      	bx	lr
	...

08001308 <RCC_EnPort>:

void RCC_EnPort(GPIO_TypeDef *port){//L45
 8001308:	b480      	push	{r7}
 800130a:	b083      	sub	sp, #12
 800130c:	af00      	add	r7, sp, #0
 800130e:	6078      	str	r0, [r7, #4]
	if(port == GPIOA){
 8001310:	687b      	ldr	r3, [r7, #4]
 8001312:	f1b3 4f90 	cmp.w	r3, #1207959552	@ 0x48000000
 8001316:	d106      	bne.n	8001326 <RCC_EnPort+0x1e>
		SET_BIT(RCC->AHB2ENR,RCC_AHB2ENR_GPIOAEN);
 8001318:	4b21      	ldr	r3, [pc, #132]	@ (80013a0 <RCC_EnPort+0x98>)
 800131a:	6cdb      	ldr	r3, [r3, #76]	@ 0x4c
 800131c:	4a20      	ldr	r2, [pc, #128]	@ (80013a0 <RCC_EnPort+0x98>)
 800131e:	f043 0301 	orr.w	r3, r3, #1
 8001322:	64d3      	str	r3, [r2, #76]	@ 0x4c
		SET_BIT(RCC->AHB2ENR,RCC_AHB2ENR_GPIOEEN);
	}
	else if(port == GPIOH){
		SET_BIT(RCC->AHB2ENR,RCC_AHB2ENR_GPIOHEN);
	}
}
 8001324:	e035      	b.n	8001392 <RCC_EnPort+0x8a>
	else if(port == GPIOB){
 8001326:	687b      	ldr	r3, [r7, #4]
 8001328:	4a1e      	ldr	r2, [pc, #120]	@ (80013a4 <RCC_EnPort+0x9c>)
 800132a:	4293      	cmp	r3, r2
 800132c:	d106      	bne.n	800133c <RCC_EnPort+0x34>
		SET_BIT(RCC->AHB2ENR,RCC_AHB2ENR_GPIOBEN);
 800132e:	4b1c      	ldr	r3, [pc, #112]	@ (80013a0 <RCC_EnPort+0x98>)
 8001330:	6cdb      	ldr	r3, [r3, #76]	@ 0x4c
 8001332:	4a1b      	ldr	r2, [pc, #108]	@ (80013a0 <RCC_EnPort+0x98>)
 8001334:	f043 0302 	orr.w	r3, r3, #2
 8001338:	64d3      	str	r3, [r2, #76]	@ 0x4c
}
 800133a:	e02a      	b.n	8001392 <RCC_EnPort+0x8a>
	else if(port == GPIOC){
 800133c:	687b      	ldr	r3, [r7, #4]
 800133e:	4a1a      	ldr	r2, [pc, #104]	@ (80013a8 <RCC_EnPort+0xa0>)
 8001340:	4293      	cmp	r3, r2
 8001342:	d106      	bne.n	8001352 <RCC_EnPort+0x4a>
		SET_BIT(RCC->AHB2ENR,RCC_AHB2ENR_GPIOCEN);
 8001344:	4b16      	ldr	r3, [pc, #88]	@ (80013a0 <RCC_EnPort+0x98>)
 8001346:	6cdb      	ldr	r3, [r3, #76]	@ 0x4c
 8001348:	4a15      	ldr	r2, [pc, #84]	@ (80013a0 <RCC_EnPort+0x98>)
 800134a:	f043 0304 	orr.w	r3, r3, #4
 800134e:	64d3      	str	r3, [r2, #76]	@ 0x4c
}
 8001350:	e01f      	b.n	8001392 <RCC_EnPort+0x8a>
	else if(port == GPIOD){
 8001352:	687b      	ldr	r3, [r7, #4]
 8001354:	4a15      	ldr	r2, [pc, #84]	@ (80013ac <RCC_EnPort+0xa4>)
 8001356:	4293      	cmp	r3, r2
 8001358:	d106      	bne.n	8001368 <RCC_EnPort+0x60>
		SET_BIT(RCC->AHB2ENR,RCC_AHB2ENR_GPIODEN);
 800135a:	4b11      	ldr	r3, [pc, #68]	@ (80013a0 <RCC_EnPort+0x98>)
 800135c:	6cdb      	ldr	r3, [r3, #76]	@ 0x4c
 800135e:	4a10      	ldr	r2, [pc, #64]	@ (80013a0 <RCC_EnPort+0x98>)
 8001360:	f043 0308 	orr.w	r3, r3, #8
 8001364:	64d3      	str	r3, [r2, #76]	@ 0x4c
}
 8001366:	e014      	b.n	8001392 <RCC_EnPort+0x8a>
	else if(port == GPIOE){
 8001368:	687b      	ldr	r3, [r7, #4]
 800136a:	4a11      	ldr	r2, [pc, #68]	@ (80013b0 <RCC_EnPort+0xa8>)
 800136c:	4293      	cmp	r3, r2
 800136e:	d106      	bne.n	800137e <RCC_EnPort+0x76>
		SET_BIT(RCC->AHB2ENR,RCC_AHB2ENR_GPIOEEN);
 8001370:	4b0b      	ldr	r3, [pc, #44]	@ (80013a0 <RCC_EnPort+0x98>)
 8001372:	6cdb      	ldr	r3, [r3, #76]	@ 0x4c
 8001374:	4a0a      	ldr	r2, [pc, #40]	@ (80013a0 <RCC_EnPort+0x98>)
 8001376:	f043 0310 	orr.w	r3, r3, #16
 800137a:	64d3      	str	r3, [r2, #76]	@ 0x4c
}
 800137c:	e009      	b.n	8001392 <RCC_EnPort+0x8a>
	else if(port == GPIOH){
 800137e:	687b      	ldr	r3, [r7, #4]
 8001380:	4a0c      	ldr	r2, [pc, #48]	@ (80013b4 <RCC_EnPort+0xac>)
 8001382:	4293      	cmp	r3, r2
 8001384:	d105      	bne.n	8001392 <RCC_EnPort+0x8a>
		SET_BIT(RCC->AHB2ENR,RCC_AHB2ENR_GPIOHEN);
 8001386:	4b06      	ldr	r3, [pc, #24]	@ (80013a0 <RCC_EnPort+0x98>)
 8001388:	6cdb      	ldr	r3, [r3, #76]	@ 0x4c
 800138a:	4a05      	ldr	r2, [pc, #20]	@ (80013a0 <RCC_EnPort+0x98>)
 800138c:	f043 0380 	orr.w	r3, r3, #128	@ 0x80
 8001390:	64d3      	str	r3, [r2, #76]	@ 0x4c
}
 8001392:	bf00      	nop
 8001394:	370c      	adds	r7, #12
 8001396:	46bd      	mov	sp, r7
 8001398:	f85d 7b04 	ldr.w	r7, [sp], #4
 800139c:	4770      	bx	lr
 800139e:	bf00      	nop
 80013a0:	40021000 	.word	0x40021000
 80013a4:	48000400 	.word	0x48000400
 80013a8:	48000800 	.word	0x48000800
 80013ac:	48000c00 	.word	0x48000c00
 80013b0:	48001000 	.word	0x48001000
 80013b4:	48001c00 	.word	0x48001c00

080013b8 <SystCLK_SetMSI>:

void SystCLK_SetMSI(uint8_t MSI_clkSel){
 80013b8:	b480      	push	{r7}
 80013ba:	b083      	sub	sp, #12
 80013bc:	af00      	add	r7, sp, #0
 80013be:	4603      	mov	r3, r0
 80013c0:	71fb      	strb	r3, [r7, #7]
	while((RCC->CR && RCC_CR_MSION) == 0);
 80013c2:	bf00      	nop
 80013c4:	4b0d      	ldr	r3, [pc, #52]	@ (80013fc <SystCLK_SetMSI+0x44>)
 80013c6:	681b      	ldr	r3, [r3, #0]
 80013c8:	2b00      	cmp	r3, #0
 80013ca:	d0fb      	beq.n	80013c4 <SystCLK_SetMSI+0xc>
	SET_BIT(RCC->CR,RCC_CR_MSIRGSEL);
 80013cc:	4b0b      	ldr	r3, [pc, #44]	@ (80013fc <SystCLK_SetMSI+0x44>)
 80013ce:	681b      	ldr	r3, [r3, #0]
 80013d0:	4a0a      	ldr	r2, [pc, #40]	@ (80013fc <SystCLK_SetMSI+0x44>)
 80013d2:	f043 0308 	orr.w	r3, r3, #8
 80013d6:	6013      	str	r3, [r2, #0]
	CLEAR_BIT(RCC->CR,RCC_CR_MSIRANGE);
 80013d8:	4b08      	ldr	r3, [pc, #32]	@ (80013fc <SystCLK_SetMSI+0x44>)
 80013da:	681b      	ldr	r3, [r3, #0]
 80013dc:	4a07      	ldr	r2, [pc, #28]	@ (80013fc <SystCLK_SetMSI+0x44>)
 80013de:	f023 03f0 	bic.w	r3, r3, #240	@ 0xf0
 80013e2:	6013      	str	r3, [r2, #0]
	SET_BIT(RCC->CR,MSI_clkSel);
 80013e4:	4b05      	ldr	r3, [pc, #20]	@ (80013fc <SystCLK_SetMSI+0x44>)
 80013e6:	681a      	ldr	r2, [r3, #0]
 80013e8:	79fb      	ldrb	r3, [r7, #7]
 80013ea:	4904      	ldr	r1, [pc, #16]	@ (80013fc <SystCLK_SetMSI+0x44>)
 80013ec:	4313      	orrs	r3, r2
 80013ee:	600b      	str	r3, [r1, #0]
}
 80013f0:	bf00      	nop
 80013f2:	370c      	adds	r7, #12
 80013f4:	46bd      	mov	sp, r7
 80013f6:	f85d 7b04 	ldr.w	r7, [sp], #4
 80013fa:	4770      	bx	lr
 80013fc:	40021000 	.word	0x40021000

08001400 <I2C_delay>:
#include<stdbool.h>



void I2C_delay(uint32_t T)
{
 8001400:	b480      	push	{r7}
 8001402:	b083      	sub	sp, #12
 8001404:	af00      	add	r7, sp, #0
 8001406:	6078      	str	r0, [r7, #4]
	while(T--);
 8001408:	bf00      	nop
 800140a:	687b      	ldr	r3, [r7, #4]
 800140c:	1e5a      	subs	r2, r3, #1
 800140e:	607a      	str	r2, [r7, #4]
 8001410:	2b00      	cmp	r3, #0
 8001412:	d1fa      	bne.n	800140a <I2C_delay+0xa>
}
 8001414:	bf00      	nop
 8001416:	bf00      	nop
 8001418:	370c      	adds	r7, #12
 800141a:	46bd      	mov	sp, r7
 800141c:	f85d 7b04 	ldr.w	r7, [sp], #4
 8001420:	4770      	bx	lr
	...

08001424 <RCC_En_I2C>:


void RCC_En_I2C(I2C_TypeDef *port){
 8001424:	b480      	push	{r7}
 8001426:	b083      	sub	sp, #12
 8001428:	af00      	add	r7, sp, #0
 800142a:	6078      	str	r0, [r7, #4]
	if(port == I2C1){
 800142c:	687b      	ldr	r3, [r7, #4]
 800142e:	4a0c      	ldr	r2, [pc, #48]	@ (8001460 <RCC_En_I2C+0x3c>)
 8001430:	4293      	cmp	r3, r2
 8001432:	d105      	bne.n	8001440 <RCC_En_I2C+0x1c>
		SET_BIT(RCC->APB1ENR1,RCC_APB1ENR1_I2C1EN);
 8001434:	4b0b      	ldr	r3, [pc, #44]	@ (8001464 <RCC_En_I2C+0x40>)
 8001436:	6d9b      	ldr	r3, [r3, #88]	@ 0x58
 8001438:	4a0a      	ldr	r2, [pc, #40]	@ (8001464 <RCC_En_I2C+0x40>)
 800143a:	f443 1300 	orr.w	r3, r3, #2097152	@ 0x200000
 800143e:	6593      	str	r3, [r2, #88]	@ 0x58
	}
	if(port == I2C3){
 8001440:	687b      	ldr	r3, [r7, #4]
 8001442:	4a09      	ldr	r2, [pc, #36]	@ (8001468 <RCC_En_I2C+0x44>)
 8001444:	4293      	cmp	r3, r2
 8001446:	d105      	bne.n	8001454 <RCC_En_I2C+0x30>
		SET_BIT(RCC->APB1ENR1,RCC_APB1ENR1_I2C3EN);
 8001448:	4b06      	ldr	r3, [pc, #24]	@ (8001464 <RCC_En_I2C+0x40>)
 800144a:	6d9b      	ldr	r3, [r3, #88]	@ 0x58
 800144c:	4a05      	ldr	r2, [pc, #20]	@ (8001464 <RCC_En_I2C+0x40>)
 800144e:	f443 0300 	orr.w	r3, r3, #8388608	@ 0x800000
 8001452:	6593      	str	r3, [r2, #88]	@ 0x58
	}
}
 8001454:	bf00      	nop
 8001456:	370c      	adds	r7, #12
 8001458:	46bd      	mov	sp, r7
 800145a:	f85d 7b04 	ldr.w	r7, [sp], #4
 800145e:	4770      	bx	lr
 8001460:	40005400 	.word	0x40005400
 8001464:	40021000 	.word	0x40021000
 8001468:	40005c00 	.word	0x40005c00

0800146c <I2C_Init>:




void I2C_Init(I2C_TypeDef *Port){
 800146c:	b480      	push	{r7}
 800146e:	b083      	sub	sp, #12
 8001470:	af00      	add	r7, sp, #0
 8001472:	6078      	str	r0, [r7, #4]
	CLEAR_BIT(Port->CR1,I2C_CR1_PE);
 8001474:	687b      	ldr	r3, [r7, #4]
 8001476:	681b      	ldr	r3, [r3, #0]
 8001478:	f023 0201 	bic.w	r2, r3, #1
 800147c:	687b      	ldr	r3, [r7, #4]
 800147e:	601a      	str	r2, [r3, #0]
	//CONFIGURA I2C EN Fast-mode (FM)
	SET_BIT(Port->TIMINGR,(1 << (28))); //Configura el preescalador PRESC[3:0]
 8001480:	687b      	ldr	r3, [r7, #4]
 8001482:	691b      	ldr	r3, [r3, #16]
 8001484:	f043 5280 	orr.w	r2, r3, #268435456	@ 0x10000000
 8001488:	687b      	ldr	r3, [r7, #4]
 800148a:	611a      	str	r2, [r3, #16]
	SET_BIT(Port->TIMINGR,(0x9 << (0))); //Configura el SCLL del registro TIMINGR
 800148c:	687b      	ldr	r3, [r7, #4]
 800148e:	691b      	ldr	r3, [r3, #16]
 8001490:	f043 0209 	orr.w	r2, r3, #9
 8001494:	687b      	ldr	r3, [r7, #4]
 8001496:	611a      	str	r2, [r3, #16]
	SET_BIT(Port->TIMINGR,(0x3 << (8))); //Configura el SCLH del registro TIMINGR
 8001498:	687b      	ldr	r3, [r7, #4]
 800149a:	691b      	ldr	r3, [r3, #16]
 800149c:	f443 7240 	orr.w	r2, r3, #768	@ 0x300
 80014a0:	687b      	ldr	r3, [r7, #4]
 80014a2:	611a      	str	r2, [r3, #16]
	SET_BIT(Port->TIMINGR,(0x2 << (16))); //Configura el SDADEL del registro TIMINGR
 80014a4:	687b      	ldr	r3, [r7, #4]
 80014a6:	691b      	ldr	r3, [r3, #16]
 80014a8:	f443 3200 	orr.w	r2, r3, #131072	@ 0x20000
 80014ac:	687b      	ldr	r3, [r7, #4]
 80014ae:	611a      	str	r2, [r3, #16]
	SET_BIT(Port->TIMINGR,(0x3 << (20))); //Configura el SCLDEL del registro TIMINGR
 80014b0:	687b      	ldr	r3, [r7, #4]
 80014b2:	691b      	ldr	r3, [r3, #16]
 80014b4:	f443 1240 	orr.w	r2, r3, #3145728	@ 0x300000
 80014b8:	687b      	ldr	r3, [r7, #4]
 80014ba:	611a      	str	r2, [r3, #16]
	//SET_BIT(Port->I2C_CR1,I2C_CR1_TXDMAEN); //Habilitar modo DMA para las transmisiones
	//SET_BIT(Port->I2C_CR1,I2C_CR1_RXDMAEN); //Habilitar modo DMA para las transmisiones
	SET_BIT(Port->CR1,I2C_CR1_ANFOFF); //Habilitar modo DMA para las transmisiones
 80014bc:	687b      	ldr	r3, [r7, #4]
 80014be:	681b      	ldr	r3, [r3, #0]
 80014c0:	f443 5280 	orr.w	r2, r3, #4096	@ 0x1000
 80014c4:	687b      	ldr	r3, [r7, #4]
 80014c6:	601a      	str	r2, [r3, #0]
    SET_BIT(Port->CR1,I2C_CR1_PE); //Habilita bit PE del registro CR1
 80014c8:	687b      	ldr	r3, [r7, #4]
 80014ca:	681b      	ldr	r3, [r3, #0]
 80014cc:	f043 0201 	orr.w	r2, r3, #1
 80014d0:	687b      	ldr	r3, [r7, #4]
 80014d2:	601a      	str	r2, [r3, #0]
}
 80014d4:	bf00      	nop
 80014d6:	370c      	adds	r7, #12
 80014d8:	46bd      	mov	sp, r7
 80014da:	f85d 7b04 	ldr.w	r7, [sp], #4
 80014de:	4770      	bx	lr

080014e0 <I2C_Tx_1Byte>:

void I2C_Tx_1Byte (I2C_TypeDef *Port, uint8_t Adress, uint8_t Byte_0){
 80014e0:	b580      	push	{r7, lr}
 80014e2:	b084      	sub	sp, #16
 80014e4:	af00      	add	r7, sp, #0
 80014e6:	6078      	str	r0, [r7, #4]
 80014e8:	460b      	mov	r3, r1
 80014ea:	70fb      	strb	r3, [r7, #3]
 80014ec:	4613      	mov	r3, r2
 80014ee:	70bb      	strb	r3, [r7, #2]
	int timeout = 1000;  // Valor de timeout ajustable
 80014f0:	f44f 737a 	mov.w	r3, #1000	@ 0x3e8
 80014f4:	60fb      	str	r3, [r7, #12]
	CLEAR_BIT(Port->CR2,I2C_CR2_ADD10); //Limpiar el bit ADD10 para utilizar direccion de esclavo de 7 bits
 80014f6:	687b      	ldr	r3, [r7, #4]
 80014f8:	685b      	ldr	r3, [r3, #4]
 80014fa:	f423 6200 	bic.w	r2, r3, #2048	@ 0x800
 80014fe:	687b      	ldr	r3, [r7, #4]
 8001500:	605a      	str	r2, [r3, #4]
	CLEAR_BIT(Port->CR2,0xFF); // Carga la dirección del esclavo
 8001502:	687b      	ldr	r3, [r7, #4]
 8001504:	685b      	ldr	r3, [r3, #4]
 8001506:	f023 02ff 	bic.w	r2, r3, #255	@ 0xff
 800150a:	687b      	ldr	r3, [r7, #4]
 800150c:	605a      	str	r2, [r3, #4]
	SET_BIT(Port->CR2,(Adress << (1))); // Carga la dirección del esclavo
 800150e:	687b      	ldr	r3, [r7, #4]
 8001510:	685a      	ldr	r2, [r3, #4]
 8001512:	78fb      	ldrb	r3, [r7, #3]
 8001514:	005b      	lsls	r3, r3, #1
 8001516:	431a      	orrs	r2, r3
 8001518:	687b      	ldr	r3, [r7, #4]
 800151a:	605a      	str	r2, [r3, #4]
	CLEAR_BIT(Port->CR2, I2C_CR2_RD_WRN); //Escritura
 800151c:	687b      	ldr	r3, [r7, #4]
 800151e:	685b      	ldr	r3, [r3, #4]
 8001520:	f423 6280 	bic.w	r2, r3, #1024	@ 0x400
 8001524:	687b      	ldr	r3, [r7, #4]
 8001526:	605a      	str	r2, [r3, #4]
	SET_BIT(Port->CR2,(0x01 << (16)));  //Numero de BYTES
 8001528:	687b      	ldr	r3, [r7, #4]
 800152a:	685b      	ldr	r3, [r3, #4]
 800152c:	f443 3280 	orr.w	r2, r3, #65536	@ 0x10000
 8001530:	687b      	ldr	r3, [r7, #4]
 8001532:	605a      	str	r2, [r3, #4]
	CLEAR_BIT(Port->CR2, I2C_CR2_AUTOEND);  //Habilitar condición de stop automatica
 8001534:	687b      	ldr	r3, [r7, #4]
 8001536:	685b      	ldr	r3, [r3, #4]
 8001538:	f023 7200 	bic.w	r2, r3, #33554432	@ 0x2000000
 800153c:	687b      	ldr	r3, [r7, #4]
 800153e:	605a      	str	r2, [r3, #4]
	SET_BIT(Port->CR2, I2C_CR2_START); //Comienza transmisión
 8001540:	687b      	ldr	r3, [r7, #4]
 8001542:	685b      	ldr	r3, [r3, #4]
 8001544:	f443 5200 	orr.w	r2, r3, #8192	@ 0x2000
 8001548:	687b      	ldr	r3, [r7, #4]
 800154a:	605a      	str	r2, [r3, #4]
	while((Port->ISR & I2C_ISR_TXIS) == 0){
 800154c:	e005      	b.n	800155a <I2C_Tx_1Byte+0x7a>
	    if(--timeout == 0) {
 800154e:	68fb      	ldr	r3, [r7, #12]
 8001550:	3b01      	subs	r3, #1
 8001552:	60fb      	str	r3, [r7, #12]
 8001554:	68fb      	ldr	r3, [r7, #12]
 8001556:	2b00      	cmp	r3, #0
 8001558:	d006      	beq.n	8001568 <I2C_Tx_1Byte+0x88>
	while((Port->ISR & I2C_ISR_TXIS) == 0){
 800155a:	687b      	ldr	r3, [r7, #4]
 800155c:	699b      	ldr	r3, [r3, #24]
 800155e:	f003 0302 	and.w	r3, r3, #2
 8001562:	2b00      	cmp	r3, #0
 8001564:	d0f3      	beq.n	800154e <I2C_Tx_1Byte+0x6e>
 8001566:	e000      	b.n	800156a <I2C_Tx_1Byte+0x8a>
	        // Gestionar el error: puede reiniciar el bus o informar un error
	        break;
 8001568:	bf00      	nop
	    }
	}
	Port->TXDR = Byte_0;
 800156a:	78ba      	ldrb	r2, [r7, #2]
 800156c:	687b      	ldr	r3, [r7, #4]
 800156e:	629a      	str	r2, [r3, #40]	@ 0x28
	I2C_delay(50);
 8001570:	2032      	movs	r0, #50	@ 0x32
 8001572:	f7ff ff45 	bl	8001400 <I2C_delay>
	//SET_BIT(Port->I2C_CR2, I2C_CR2_STOP); //Condicion de stop
	SET_BIT(Port->ICR, I2C_ICR_STOPCF); //Limpia bandaera de deteccion de condicion de stop
 8001576:	687b      	ldr	r3, [r7, #4]
 8001578:	69db      	ldr	r3, [r3, #28]
 800157a:	f043 0220 	orr.w	r2, r3, #32
 800157e:	687b      	ldr	r3, [r7, #4]
 8001580:	61da      	str	r2, [r3, #28]
	CLEAR_BIT(Port->CR1,I2C_CR1_PE); //Deshabilita bit PE del registro CR1 para desactivar el periferico
 8001582:	687b      	ldr	r3, [r7, #4]
 8001584:	681b      	ldr	r3, [r3, #0]
 8001586:	f023 0201 	bic.w	r2, r3, #1
 800158a:	687b      	ldr	r3, [r7, #4]
 800158c:	601a      	str	r2, [r3, #0]
	SET_BIT(Port->CR1,I2C_CR1_PE); //Habilita bit PE del registro CR1 para activar el periferico
 800158e:	687b      	ldr	r3, [r7, #4]
 8001590:	681b      	ldr	r3, [r3, #0]
 8001592:	f043 0201 	orr.w	r2, r3, #1
 8001596:	687b      	ldr	r3, [r7, #4]
 8001598:	601a      	str	r2, [r3, #0]

}
 800159a:	bf00      	nop
 800159c:	3710      	adds	r7, #16
 800159e:	46bd      	mov	sp, r7
 80015a0:	bd80      	pop	{r7, pc}

080015a2 <I2C_Rx_1Byte>:

int16_t I2C_Rx_1Byte (I2C_TypeDef *Port, uint8_t Adress){
 80015a2:	b580      	push	{r7, lr}
 80015a4:	b084      	sub	sp, #16
 80015a6:	af00      	add	r7, sp, #0
 80015a8:	6078      	str	r0, [r7, #4]
 80015aa:	460b      	mov	r3, r1
 80015ac:	70fb      	strb	r3, [r7, #3]
	int timeout = 1000;  // Valor de timeout ajustable
 80015ae:	f44f 737a 	mov.w	r3, #1000	@ 0x3e8
 80015b2:	60fb      	str	r3, [r7, #12]
	int16_t ACEL_XOUT;
	uint8_t ACCEL_XOUT_H;
	uint8_t ACCEL_XOUT_L;
	CLEAR_BIT(Port->CR2,I2C_CR2_ADD10); //Limpiar el bit ADD10 para utilizar direccion de esclavo de 7 bits
 80015b4:	687b      	ldr	r3, [r7, #4]
 80015b6:	685b      	ldr	r3, [r3, #4]
 80015b8:	f423 6200 	bic.w	r2, r3, #2048	@ 0x800
 80015bc:	687b      	ldr	r3, [r7, #4]
 80015be:	605a      	str	r2, [r3, #4]
	SET_BIT(Port->CR2,I2C_CR2_HEAD10R); //Limpiar el bit ADD10 para utilizar direccion de esclavo de 7 bits
 80015c0:	687b      	ldr	r3, [r7, #4]
 80015c2:	685b      	ldr	r3, [r3, #4]
 80015c4:	f443 5280 	orr.w	r2, r3, #4096	@ 0x1000
 80015c8:	687b      	ldr	r3, [r7, #4]
 80015ca:	605a      	str	r2, [r3, #4]
	CLEAR_BIT(Port->CR2,0xFF); // Carga la dirección del esclavo
 80015cc:	687b      	ldr	r3, [r7, #4]
 80015ce:	685b      	ldr	r3, [r3, #4]
 80015d0:	f023 02ff 	bic.w	r2, r3, #255	@ 0xff
 80015d4:	687b      	ldr	r3, [r7, #4]
 80015d6:	605a      	str	r2, [r3, #4]
	SET_BIT(Port->CR2,(Adress << (1))); // Carga la dirección del esclavo
 80015d8:	687b      	ldr	r3, [r7, #4]
 80015da:	685a      	ldr	r2, [r3, #4]
 80015dc:	78fb      	ldrb	r3, [r7, #3]
 80015de:	005b      	lsls	r3, r3, #1
 80015e0:	431a      	orrs	r2, r3
 80015e2:	687b      	ldr	r3, [r7, #4]
 80015e4:	605a      	str	r2, [r3, #4]
	SET_BIT(Port->CR2, I2C_CR2_RD_WRN); //lectura
 80015e6:	687b      	ldr	r3, [r7, #4]
 80015e8:	685b      	ldr	r3, [r3, #4]
 80015ea:	f443 6280 	orr.w	r2, r3, #1024	@ 0x400
 80015ee:	687b      	ldr	r3, [r7, #4]
 80015f0:	605a      	str	r2, [r3, #4]
	SET_BIT(Port->CR2,(0x02 << (16)));  //Numero de BYTES
 80015f2:	687b      	ldr	r3, [r7, #4]
 80015f4:	685b      	ldr	r3, [r3, #4]
 80015f6:	f443 3200 	orr.w	r2, r3, #131072	@ 0x20000
 80015fa:	687b      	ldr	r3, [r7, #4]
 80015fc:	605a      	str	r2, [r3, #4]
	CLEAR_BIT(Port->CR2,I2C_CR2_AUTOEND);  //Habilitar condición de stop automatica
 80015fe:	687b      	ldr	r3, [r7, #4]
 8001600:	685b      	ldr	r3, [r3, #4]
 8001602:	f023 7200 	bic.w	r2, r3, #33554432	@ 0x2000000
 8001606:	687b      	ldr	r3, [r7, #4]
 8001608:	605a      	str	r2, [r3, #4]
	SET_BIT(Port->CR2, I2C_CR2_START); //Comienza transmisión
 800160a:	687b      	ldr	r3, [r7, #4]
 800160c:	685b      	ldr	r3, [r3, #4]
 800160e:	f443 5200 	orr.w	r2, r3, #8192	@ 0x2000
 8001612:	687b      	ldr	r3, [r7, #4]
 8001614:	605a      	str	r2, [r3, #4]

	while((Port->ISR & I2C_ISR_RXNE) == 0){
 8001616:	e005      	b.n	8001624 <I2C_Rx_1Byte+0x82>
	    if(--timeout == 0) {
 8001618:	68fb      	ldr	r3, [r7, #12]
 800161a:	3b01      	subs	r3, #1
 800161c:	60fb      	str	r3, [r7, #12]
 800161e:	68fb      	ldr	r3, [r7, #12]
 8001620:	2b00      	cmp	r3, #0
 8001622:	d006      	beq.n	8001632 <I2C_Rx_1Byte+0x90>
	while((Port->ISR & I2C_ISR_RXNE) == 0){
 8001624:	687b      	ldr	r3, [r7, #4]
 8001626:	699b      	ldr	r3, [r3, #24]
 8001628:	f003 0304 	and.w	r3, r3, #4
 800162c:	2b00      	cmp	r3, #0
 800162e:	d0f3      	beq.n	8001618 <I2C_Rx_1Byte+0x76>
 8001630:	e000      	b.n	8001634 <I2C_Rx_1Byte+0x92>
	        // Gestionar el error: puede reiniciar el bus o informar un error
	        break;
 8001632:	bf00      	nop
	    }
	}
	timeout = 1000;
 8001634:	f44f 737a 	mov.w	r3, #1000	@ 0x3e8
 8001638:	60fb      	str	r3, [r7, #12]
	ACCEL_XOUT_H=Port->RXDR;  //Leo valor que envia MPU
 800163a:	687b      	ldr	r3, [r7, #4]
 800163c:	6a5b      	ldr	r3, [r3, #36]	@ 0x24
 800163e:	72fb      	strb	r3, [r7, #11]
	I2C_delay(100);
 8001640:	2064      	movs	r0, #100	@ 0x64
 8001642:	f7ff fedd 	bl	8001400 <I2C_delay>
	while((Port->ISR & I2C_ISR_RXNE) == 0){
 8001646:	e005      	b.n	8001654 <I2C_Rx_1Byte+0xb2>
	    if(--timeout == 0) {
 8001648:	68fb      	ldr	r3, [r7, #12]
 800164a:	3b01      	subs	r3, #1
 800164c:	60fb      	str	r3, [r7, #12]
 800164e:	68fb      	ldr	r3, [r7, #12]
 8001650:	2b00      	cmp	r3, #0
 8001652:	d006      	beq.n	8001662 <I2C_Rx_1Byte+0xc0>
	while((Port->ISR & I2C_ISR_RXNE) == 0){
 8001654:	687b      	ldr	r3, [r7, #4]
 8001656:	699b      	ldr	r3, [r3, #24]
 8001658:	f003 0304 	and.w	r3, r3, #4
 800165c:	2b00      	cmp	r3, #0
 800165e:	d0f3      	beq.n	8001648 <I2C_Rx_1Byte+0xa6>
 8001660:	e000      	b.n	8001664 <I2C_Rx_1Byte+0xc2>
	        // Gestionar el error: puede reiniciar el bus o informar un error
	        break;
 8001662:	bf00      	nop
	    }
	}
	timeout = 1000;
 8001664:	f44f 737a 	mov.w	r3, #1000	@ 0x3e8
 8001668:	60fb      	str	r3, [r7, #12]
	ACCEL_XOUT_L=Port->RXDR;  //Leo valor que envia MPU
 800166a:	687b      	ldr	r3, [r7, #4]
 800166c:	6a5b      	ldr	r3, [r3, #36]	@ 0x24
 800166e:	72bb      	strb	r3, [r7, #10]
	I2C_delay(100);
 8001670:	2064      	movs	r0, #100	@ 0x64
 8001672:	f7ff fec5 	bl	8001400 <I2C_delay>
	SET_BIT(Port->CR2, I2C_CR2_STOP); //Condicion de stop
 8001676:	687b      	ldr	r3, [r7, #4]
 8001678:	685b      	ldr	r3, [r3, #4]
 800167a:	f443 4280 	orr.w	r2, r3, #16384	@ 0x4000
 800167e:	687b      	ldr	r3, [r7, #4]
 8001680:	605a      	str	r2, [r3, #4]
	SET_BIT(Port->ICR, I2C_ICR_STOPCF); //Limpia bandaera de deteccion de condicion de stop
 8001682:	687b      	ldr	r3, [r7, #4]
 8001684:	69db      	ldr	r3, [r3, #28]
 8001686:	f043 0220 	orr.w	r2, r3, #32
 800168a:	687b      	ldr	r3, [r7, #4]
 800168c:	61da      	str	r2, [r3, #28]
	SET_BIT(Port->ICR, I2C_ICR_NACKCF); //Limpia bandaera de deteccion de condicion de stop
 800168e:	687b      	ldr	r3, [r7, #4]
 8001690:	69db      	ldr	r3, [r3, #28]
 8001692:	f043 0210 	orr.w	r2, r3, #16
 8001696:	687b      	ldr	r3, [r7, #4]
 8001698:	61da      	str	r2, [r3, #28]
	CLEAR_BIT(Port->CR1,I2C_CR1_PE); //Deshabilita bit PE del registro CR1 para desactivar el periferico
 800169a:	687b      	ldr	r3, [r7, #4]
 800169c:	681b      	ldr	r3, [r3, #0]
 800169e:	f023 0201 	bic.w	r2, r3, #1
 80016a2:	687b      	ldr	r3, [r7, #4]
 80016a4:	601a      	str	r2, [r3, #0]
	SET_BIT(Port->CR1,I2C_CR1_PE); //Habilita bit PE del registro CR1 para activar el periferico
 80016a6:	687b      	ldr	r3, [r7, #4]
 80016a8:	681b      	ldr	r3, [r3, #0]
 80016aa:	f043 0201 	orr.w	r2, r3, #1
 80016ae:	687b      	ldr	r3, [r7, #4]
 80016b0:	601a      	str	r2, [r3, #0]
	ACEL_XOUT = ACCEL_XOUT_H <<8 |ACCEL_XOUT_L;
 80016b2:	7afb      	ldrb	r3, [r7, #11]
 80016b4:	021b      	lsls	r3, r3, #8
 80016b6:	b21a      	sxth	r2, r3
 80016b8:	7abb      	ldrb	r3, [r7, #10]
 80016ba:	b21b      	sxth	r3, r3
 80016bc:	4313      	orrs	r3, r2
 80016be:	813b      	strh	r3, [r7, #8]
	return ACEL_XOUT;
 80016c0:	f9b7 3008 	ldrsh.w	r3, [r7, #8]
}
 80016c4:	4618      	mov	r0, r3
 80016c6:	3710      	adds	r7, #16
 80016c8:	46bd      	mov	sp, r7
 80016ca:	bd80      	pop	{r7, pc}

080016cc <I2C_Tx_2Bytes>:

void I2C_Tx_2Bytes (I2C_TypeDef *Port, uint8_t Adress, uint8_t Byte_0, uint8_t Byte_1){
 80016cc:	b580      	push	{r7, lr}
 80016ce:	b082      	sub	sp, #8
 80016d0:	af00      	add	r7, sp, #0
 80016d2:	6078      	str	r0, [r7, #4]
 80016d4:	4608      	mov	r0, r1
 80016d6:	4611      	mov	r1, r2
 80016d8:	461a      	mov	r2, r3
 80016da:	4603      	mov	r3, r0
 80016dc:	70fb      	strb	r3, [r7, #3]
 80016de:	460b      	mov	r3, r1
 80016e0:	70bb      	strb	r3, [r7, #2]
 80016e2:	4613      	mov	r3, r2
 80016e4:	707b      	strb	r3, [r7, #1]
CLEAR_BIT(Port->CR2,I2C_CR2_ADD10); //Limpiar el bit ADD10 para utilizar direccion de esclavo de 7 bits
 80016e6:	687b      	ldr	r3, [r7, #4]
 80016e8:	685b      	ldr	r3, [r3, #4]
 80016ea:	f423 6200 	bic.w	r2, r3, #2048	@ 0x800
 80016ee:	687b      	ldr	r3, [r7, #4]
 80016f0:	605a      	str	r2, [r3, #4]
CLEAR_BIT(Port->CR2,0xFF); // Carga la dirección del esclavo
 80016f2:	687b      	ldr	r3, [r7, #4]
 80016f4:	685b      	ldr	r3, [r3, #4]
 80016f6:	f023 02ff 	bic.w	r2, r3, #255	@ 0xff
 80016fa:	687b      	ldr	r3, [r7, #4]
 80016fc:	605a      	str	r2, [r3, #4]
SET_BIT(Port->CR2,(Adress << (1))); // Carga la dirección del esclavo
 80016fe:	687b      	ldr	r3, [r7, #4]
 8001700:	685a      	ldr	r2, [r3, #4]
 8001702:	78fb      	ldrb	r3, [r7, #3]
 8001704:	005b      	lsls	r3, r3, #1
 8001706:	431a      	orrs	r2, r3
 8001708:	687b      	ldr	r3, [r7, #4]
 800170a:	605a      	str	r2, [r3, #4]
CLEAR_BIT(Port->CR2, I2C_CR2_RD_WRN); //Escritura
 800170c:	687b      	ldr	r3, [r7, #4]
 800170e:	685b      	ldr	r3, [r3, #4]
 8001710:	f423 6280 	bic.w	r2, r3, #1024	@ 0x400
 8001714:	687b      	ldr	r3, [r7, #4]
 8001716:	605a      	str	r2, [r3, #4]
SET_BIT(Port->CR2,(0x02 << (16)));  //Numero de BYTES
 8001718:	687b      	ldr	r3, [r7, #4]
 800171a:	685b      	ldr	r3, [r3, #4]
 800171c:	f443 3200 	orr.w	r2, r3, #131072	@ 0x20000
 8001720:	687b      	ldr	r3, [r7, #4]
 8001722:	605a      	str	r2, [r3, #4]
CLEAR_BIT(Port->CR2, I2C_CR2_AUTOEND);  //Habilitar condición de stop automatica
 8001724:	687b      	ldr	r3, [r7, #4]
 8001726:	685b      	ldr	r3, [r3, #4]
 8001728:	f023 7200 	bic.w	r2, r3, #33554432	@ 0x2000000
 800172c:	687b      	ldr	r3, [r7, #4]
 800172e:	605a      	str	r2, [r3, #4]
SET_BIT(Port->CR2, I2C_CR2_START); //Comienza transmisión
 8001730:	687b      	ldr	r3, [r7, #4]
 8001732:	685b      	ldr	r3, [r3, #4]
 8001734:	f443 5200 	orr.w	r2, r3, #8192	@ 0x2000
 8001738:	687b      	ldr	r3, [r7, #4]
 800173a:	605a      	str	r2, [r3, #4]
while((Port->ISR&I2C_ISR_TXIS)==0){};
 800173c:	bf00      	nop
 800173e:	687b      	ldr	r3, [r7, #4]
 8001740:	699b      	ldr	r3, [r3, #24]
 8001742:	f003 0302 	and.w	r3, r3, #2
 8001746:	2b00      	cmp	r3, #0
 8001748:	d0f9      	beq.n	800173e <I2C_Tx_2Bytes+0x72>
Port->TXDR = Byte_0;
 800174a:	78ba      	ldrb	r2, [r7, #2]
 800174c:	687b      	ldr	r3, [r7, #4]
 800174e:	629a      	str	r2, [r3, #40]	@ 0x28
I2C_delay(100);
 8001750:	2064      	movs	r0, #100	@ 0x64
 8001752:	f7ff fe55 	bl	8001400 <I2C_delay>
while((Port->ISR&I2C_ISR_TXIS)==0){};
 8001756:	bf00      	nop
 8001758:	687b      	ldr	r3, [r7, #4]
 800175a:	699b      	ldr	r3, [r3, #24]
 800175c:	f003 0302 	and.w	r3, r3, #2
 8001760:	2b00      	cmp	r3, #0
 8001762:	d0f9      	beq.n	8001758 <I2C_Tx_2Bytes+0x8c>
Port->TXDR = Byte_1;
 8001764:	787a      	ldrb	r2, [r7, #1]
 8001766:	687b      	ldr	r3, [r7, #4]
 8001768:	629a      	str	r2, [r3, #40]	@ 0x28
I2C_delay(100);
 800176a:	2064      	movs	r0, #100	@ 0x64
 800176c:	f7ff fe48 	bl	8001400 <I2C_delay>
SET_BIT(Port->CR2, I2C_CR2_STOP); //Condicion de stop
 8001770:	687b      	ldr	r3, [r7, #4]
 8001772:	685b      	ldr	r3, [r3, #4]
 8001774:	f443 4280 	orr.w	r2, r3, #16384	@ 0x4000
 8001778:	687b      	ldr	r3, [r7, #4]
 800177a:	605a      	str	r2, [r3, #4]
SET_BIT(Port->ICR, I2C_ICR_STOPCF); //Limpia bandaera de deteccion de condicion de stop
 800177c:	687b      	ldr	r3, [r7, #4]
 800177e:	69db      	ldr	r3, [r3, #28]
 8001780:	f043 0220 	orr.w	r2, r3, #32
 8001784:	687b      	ldr	r3, [r7, #4]
 8001786:	61da      	str	r2, [r3, #28]
CLEAR_BIT(Port->CR1,I2C_CR1_PE); //Deshabilita bit PE del registro CR1 para desactivar el periferico
 8001788:	687b      	ldr	r3, [r7, #4]
 800178a:	681b      	ldr	r3, [r3, #0]
 800178c:	f023 0201 	bic.w	r2, r3, #1
 8001790:	687b      	ldr	r3, [r7, #4]
 8001792:	601a      	str	r2, [r3, #0]
SET_BIT(Port->CR1,I2C_CR1_PE); //Habilita bit PE del registro CR1 para activar el periferico
 8001794:	687b      	ldr	r3, [r7, #4]
 8001796:	681b      	ldr	r3, [r3, #0]
 8001798:	f043 0201 	orr.w	r2, r3, #1
 800179c:	687b      	ldr	r3, [r7, #4]
 800179e:	601a      	str	r2, [r3, #0]
}
 80017a0:	bf00      	nop
 80017a2:	3708      	adds	r7, #8
 80017a4:	46bd      	mov	sp, r7
 80017a6:	bd80      	pop	{r7, pc}

080017a8 <NVIC_Enable>:
#include "stm32l4xx.h"
#include <stdint.h>
#include<stdbool.h>
#include "NVIC.h"

void NVIC_Enable(uint32_t irq_num, uint8_t priority) {
 80017a8:	b480      	push	{r7}
 80017aa:	b085      	sub	sp, #20
 80017ac:	af00      	add	r7, sp, #0
 80017ae:	6078      	str	r0, [r7, #4]
 80017b0:	460b      	mov	r3, r1
 80017b2:	70fb      	strb	r3, [r7, #3]
    if (irq_num >= 84) {
 80017b4:	687b      	ldr	r3, [r7, #4]
 80017b6:	2b53      	cmp	r3, #83	@ 0x53
 80017b8:	d81a      	bhi.n	80017f0 <NVIC_Enable+0x48>
        // El número de interrupción es inválido, dado que el microcontrolador solo tiene 84 interrupciones
        return;
    }

    // Calcular el índice del registro ISER y el bit correspondiente
    uint32_t iser_index = irq_num / 32;
 80017ba:	687b      	ldr	r3, [r7, #4]
 80017bc:	095b      	lsrs	r3, r3, #5
 80017be:	60fb      	str	r3, [r7, #12]
    uint32_t iser_bit = irq_num % 32;
 80017c0:	687b      	ldr	r3, [r7, #4]
 80017c2:	f003 031f 	and.w	r3, r3, #31
 80017c6:	60bb      	str	r3, [r7, #8]

    // Activar la interrupción correspondiente en NVIC_ISER
    NVIC->ISER[iser_index] = (1 << iser_bit);
 80017c8:	2201      	movs	r2, #1
 80017ca:	68bb      	ldr	r3, [r7, #8]
 80017cc:	fa02 f303 	lsl.w	r3, r2, r3
 80017d0:	4a0a      	ldr	r2, [pc, #40]	@ (80017fc <NVIC_Enable+0x54>)
 80017d2:	4619      	mov	r1, r3
 80017d4:	68fb      	ldr	r3, [r7, #12]
 80017d6:	f842 1023 	str.w	r1, [r2, r3, lsl #2]

    // Configurar la prioridad en el registro NVIC_IPR
    NVIC->IP[irq_num] = (priority & 0xF) << 4; // La prioridad usa 4 bits más significativos
 80017da:	78fb      	ldrb	r3, [r7, #3]
 80017dc:	011b      	lsls	r3, r3, #4
 80017de:	4a07      	ldr	r2, [pc, #28]	@ (80017fc <NVIC_Enable+0x54>)
 80017e0:	b2d9      	uxtb	r1, r3
 80017e2:	687b      	ldr	r3, [r7, #4]
 80017e4:	4413      	add	r3, r2
 80017e6:	f503 7340 	add.w	r3, r3, #768	@ 0x300
 80017ea:	460a      	mov	r2, r1
 80017ec:	701a      	strb	r2, [r3, #0]
 80017ee:	e000      	b.n	80017f2 <NVIC_Enable+0x4a>
        return;
 80017f0:	bf00      	nop

    // La función no limpia en ICER, pero si quieres limpiar el bit usa:
    // NVIC->ICER[iser_index] = (1 << iser_bit); // Esto es opcional si necesitas desactivar
}
 80017f2:	3714      	adds	r7, #20
 80017f4:	46bd      	mov	sp, r7
 80017f6:	f85d 7b04 	ldr.w	r7, [sp], #4
 80017fa:	4770      	bx	lr
 80017fc:	e000e100 	.word	0xe000e100

08001800 <RCC_En_USARTx>:
volatile uint16_t writeIndex = 0;      // Índice para guardar el próximo dato recibido

char *A;
char buffer[255];

void RCC_En_USARTx(USART_TypeDef *port){
 8001800:	b480      	push	{r7}
 8001802:	b083      	sub	sp, #12
 8001804:	af00      	add	r7, sp, #0
 8001806:	6078      	str	r0, [r7, #4]
	if(port == USART2){
 8001808:	687b      	ldr	r3, [r7, #4]
 800180a:	4a11      	ldr	r2, [pc, #68]	@ (8001850 <RCC_En_USARTx+0x50>)
 800180c:	4293      	cmp	r3, r2
 800180e:	d105      	bne.n	800181c <RCC_En_USARTx+0x1c>
		SET_BIT(RCC->APB1ENR1,RCC_APB1ENR1_USART2EN);
 8001810:	4b10      	ldr	r3, [pc, #64]	@ (8001854 <RCC_En_USARTx+0x54>)
 8001812:	6d9b      	ldr	r3, [r3, #88]	@ 0x58
 8001814:	4a0f      	ldr	r2, [pc, #60]	@ (8001854 <RCC_En_USARTx+0x54>)
 8001816:	f443 3300 	orr.w	r3, r3, #131072	@ 0x20000
 800181a:	6593      	str	r3, [r2, #88]	@ 0x58
	}
	if(port == USART3){
 800181c:	687b      	ldr	r3, [r7, #4]
 800181e:	4a0e      	ldr	r2, [pc, #56]	@ (8001858 <RCC_En_USARTx+0x58>)
 8001820:	4293      	cmp	r3, r2
 8001822:	d105      	bne.n	8001830 <RCC_En_USARTx+0x30>
		SET_BIT(RCC->APB1ENR1,RCC_APB1ENR1_USART3EN);
 8001824:	4b0b      	ldr	r3, [pc, #44]	@ (8001854 <RCC_En_USARTx+0x54>)
 8001826:	6d9b      	ldr	r3, [r3, #88]	@ 0x58
 8001828:	4a0a      	ldr	r2, [pc, #40]	@ (8001854 <RCC_En_USARTx+0x54>)
 800182a:	f443 2380 	orr.w	r3, r3, #262144	@ 0x40000
 800182e:	6593      	str	r3, [r2, #88]	@ 0x58
	}
	if(port == UART4){
 8001830:	687b      	ldr	r3, [r7, #4]
 8001832:	4a0a      	ldr	r2, [pc, #40]	@ (800185c <RCC_En_USARTx+0x5c>)
 8001834:	4293      	cmp	r3, r2
 8001836:	d105      	bne.n	8001844 <RCC_En_USARTx+0x44>
		SET_BIT(RCC->APB1ENR1,RCC_APB1ENR1_UART4EN );
 8001838:	4b06      	ldr	r3, [pc, #24]	@ (8001854 <RCC_En_USARTx+0x54>)
 800183a:	6d9b      	ldr	r3, [r3, #88]	@ 0x58
 800183c:	4a05      	ldr	r2, [pc, #20]	@ (8001854 <RCC_En_USARTx+0x54>)
 800183e:	f443 2300 	orr.w	r3, r3, #524288	@ 0x80000
 8001842:	6593      	str	r3, [r2, #88]	@ 0x58
	}
}
 8001844:	bf00      	nop
 8001846:	370c      	adds	r7, #12
 8001848:	46bd      	mov	sp, r7
 800184a:	f85d 7b04 	ldr.w	r7, [sp], #4
 800184e:	4770      	bx	lr
 8001850:	40004400 	.word	0x40004400
 8001854:	40021000 	.word	0x40021000
 8001858:	40004800 	.word	0x40004800
 800185c:	40004c00 	.word	0x40004c00

08001860 <USARTx_CONF>:


void USARTx_CONF(USART_TypeDef *USARTx_, uint16_t USARTx_BRR_MSI, uint8_t USARTx_Pos_IRQn, uint8_t USARTx_Prio_IRQn){
 8001860:	b580      	push	{r7, lr}
 8001862:	b082      	sub	sp, #8
 8001864:	af00      	add	r7, sp, #0
 8001866:	6078      	str	r0, [r7, #4]
 8001868:	4608      	mov	r0, r1
 800186a:	4611      	mov	r1, r2
 800186c:	461a      	mov	r2, r3
 800186e:	4603      	mov	r3, r0
 8001870:	807b      	strh	r3, [r7, #2]
 8001872:	460b      	mov	r3, r1
 8001874:	707b      	strb	r3, [r7, #1]
 8001876:	4613      	mov	r3, r2
 8001878:	703b      	strb	r3, [r7, #0]

	A = buffer;
 800187a:	4b1b      	ldr	r3, [pc, #108]	@ (80018e8 <USARTx_CONF+0x88>)
 800187c:	4a1b      	ldr	r2, [pc, #108]	@ (80018ec <USARTx_CONF+0x8c>)
 800187e:	601a      	str	r2, [r3, #0]
	CLEAR_BIT(USARTx_->CR1, 0xFF);	//LIMPIAMOS Y DESHABILITAMOS CONFIGURACIÓN DE USART3
 8001880:	687b      	ldr	r3, [r7, #4]
 8001882:	681b      	ldr	r3, [r3, #0]
 8001884:	f023 02ff 	bic.w	r2, r3, #255	@ 0xff
 8001888:	687b      	ldr	r3, [r7, #4]
 800188a:	601a      	str	r2, [r3, #0]
	SET_BIT(USARTx_->BRR, USARTx_BRR_MSI);	//SE CONFIGURA UN BAUD RATE
 800188c:	687b      	ldr	r3, [r7, #4]
 800188e:	68da      	ldr	r2, [r3, #12]
 8001890:	887b      	ldrh	r3, [r7, #2]
 8001892:	431a      	orrs	r2, r3
 8001894:	687b      	ldr	r3, [r7, #4]
 8001896:	60da      	str	r2, [r3, #12]

	SET_BIT(USARTx_->CR1, 0x0C);	//HABILITAMOS TX Y RX
 8001898:	687b      	ldr	r3, [r7, #4]
 800189a:	681b      	ldr	r3, [r3, #0]
 800189c:	f043 020c 	orr.w	r2, r3, #12
 80018a0:	687b      	ldr	r3, [r7, #4]
 80018a2:	601a      	str	r2, [r3, #0]
	/*#####CONFIGURACIÓN PARA INDICADORES DE BANDERAS EN USART3 CON CR1#####*/
	SET_BIT(USARTx_->CR1, 0x020);	//ENMASCARAMOS BANDERA INDICADORA EN LA RECEPCIÓN DE DATOS, BIT 5
 80018a4:	687b      	ldr	r3, [r7, #4]
 80018a6:	681b      	ldr	r3, [r3, #0]
 80018a8:	f043 0220 	orr.w	r2, r3, #32
 80018ac:	687b      	ldr	r3, [r7, #4]
 80018ae:	601a      	str	r2, [r3, #0]

	/*#####ÚLTIMA CONFIGURACIÓN PARA USART3#####*/
	SET_BIT(USARTx_->CR1, 0x01);	//HABILITAMOS LA CONEXIÓN EN USART3
 80018b0:	687b      	ldr	r3, [r7, #4]
 80018b2:	681b      	ldr	r3, [r3, #0]
 80018b4:	f043 0201 	orr.w	r2, r3, #1
 80018b8:	687b      	ldr	r3, [r7, #4]
 80018ba:	601a      	str	r2, [r3, #0]

	switch(USARTx_Pos_IRQn){
 80018bc:	787b      	ldrb	r3, [r7, #1]
 80018be:	2b27      	cmp	r3, #39	@ 0x27
 80018c0:	d002      	beq.n	80018c8 <USARTx_CONF+0x68>
 80018c2:	2b34      	cmp	r3, #52	@ 0x34
 80018c4:	d006      	beq.n	80018d4 <USARTx_CONF+0x74>
		break;
	case UART4_IRQn:
		NVIC_Enable(UART4_IRQn, USARTx_Prio_IRQn);//ACTIVA INTERRUPCIÓN UART4
		break;
	default:
		break;
 80018c6:	e00b      	b.n	80018e0 <USARTx_CONF+0x80>
		NVIC_Enable(USART3_IRQn, USARTx_Prio_IRQn);//ACTIVA INTERRUPCIÓN USART3
 80018c8:	783b      	ldrb	r3, [r7, #0]
 80018ca:	4619      	mov	r1, r3
 80018cc:	2027      	movs	r0, #39	@ 0x27
 80018ce:	f7ff ff6b 	bl	80017a8 <NVIC_Enable>
		break;
 80018d2:	e005      	b.n	80018e0 <USARTx_CONF+0x80>
		NVIC_Enable(UART4_IRQn, USARTx_Prio_IRQn);//ACTIVA INTERRUPCIÓN UART4
 80018d4:	783b      	ldrb	r3, [r7, #0]
 80018d6:	4619      	mov	r1, r3
 80018d8:	2034      	movs	r0, #52	@ 0x34
 80018da:	f7ff ff65 	bl	80017a8 <NVIC_Enable>
		break;
 80018de:	bf00      	nop
	}
}
 80018e0:	bf00      	nop
 80018e2:	3708      	adds	r7, #8
 80018e4:	46bd      	mov	sp, r7
 80018e6:	bd80      	pop	{r7, pc}
 80018e8:	200000d4 	.word	0x200000d4
 80018ec:	200000d8 	.word	0x200000d8

080018f0 <USART3_IRQHandler>:

// Función de interrupción por UART
void USART3_IRQHandler(void){
 80018f0:	b480      	push	{r7}
 80018f2:	b083      	sub	sp, #12
 80018f4:	af00      	add	r7, sp, #0
	CLEAR_BIT(USART3->RQR, 0x08);
	//UART4->TDR = *A++;
	 * */

	    // Leer el dato recibido desde el registro RDR
	    uint8_t receivedData = USART3->RDR;
 80018f6:	4b19      	ldr	r3, [pc, #100]	@ (800195c <USART3_IRQHandler+0x6c>)
 80018f8:	8c9b      	ldrh	r3, [r3, #36]	@ 0x24
 80018fa:	b29b      	uxth	r3, r3
 80018fc:	717b      	strb	r3, [r7, #5]

	    // Guardar el dato en el arreglo
	    if (writeIndex < BUFFER_SIZE) {
 80018fe:	4b18      	ldr	r3, [pc, #96]	@ (8001960 <USART3_IRQHandler+0x70>)
 8001900:	881b      	ldrh	r3, [r3, #0]
 8001902:	b29b      	uxth	r3, r3
 8001904:	2b63      	cmp	r3, #99	@ 0x63
 8001906:	d80b      	bhi.n	8001920 <USART3_IRQHandler+0x30>
	        rxBuffer[writeIndex++] = receivedData;
 8001908:	4b15      	ldr	r3, [pc, #84]	@ (8001960 <USART3_IRQHandler+0x70>)
 800190a:	881b      	ldrh	r3, [r3, #0]
 800190c:	b29b      	uxth	r3, r3
 800190e:	1c5a      	adds	r2, r3, #1
 8001910:	b291      	uxth	r1, r2
 8001912:	4a13      	ldr	r2, [pc, #76]	@ (8001960 <USART3_IRQHandler+0x70>)
 8001914:	8011      	strh	r1, [r2, #0]
 8001916:	4619      	mov	r1, r3
 8001918:	4a12      	ldr	r2, [pc, #72]	@ (8001964 <USART3_IRQHandler+0x74>)
 800191a:	797b      	ldrb	r3, [r7, #5]
 800191c:	5453      	strb	r3, [r2, r1]
 800191e:	e00f      	b.n	8001940 <USART3_IRQHandler+0x50>
	    } else {
	        // Si el buffer está lleno, limpiar el buffer
	        for (uint16_t i = 0; i < BUFFER_SIZE; i++) {
 8001920:	2300      	movs	r3, #0
 8001922:	80fb      	strh	r3, [r7, #6]
 8001924:	e006      	b.n	8001934 <USART3_IRQHandler+0x44>
	            rxBuffer[i] = 0; // Limpia cada posición del buffer
 8001926:	88fb      	ldrh	r3, [r7, #6]
 8001928:	4a0e      	ldr	r2, [pc, #56]	@ (8001964 <USART3_IRQHandler+0x74>)
 800192a:	2100      	movs	r1, #0
 800192c:	54d1      	strb	r1, [r2, r3]
	        for (uint16_t i = 0; i < BUFFER_SIZE; i++) {
 800192e:	88fb      	ldrh	r3, [r7, #6]
 8001930:	3301      	adds	r3, #1
 8001932:	80fb      	strh	r3, [r7, #6]
 8001934:	88fb      	ldrh	r3, [r7, #6]
 8001936:	2b63      	cmp	r3, #99	@ 0x63
 8001938:	d9f5      	bls.n	8001926 <USART3_IRQHandler+0x36>
	        }

	        // Reiniciar el índice y guardar el dato recibido en la primera posición
	        writeIndex = 0;
 800193a:	4b09      	ldr	r3, [pc, #36]	@ (8001960 <USART3_IRQHandler+0x70>)
 800193c:	2200      	movs	r2, #0
 800193e:	801a      	strh	r2, [r3, #0]
	       // rxBuffer[writeIndex++] = receivedData;
	    }

	    // Limpiar la bandera para salir de la interrupción
	    CLEAR_BIT(USART3->RQR, 0x08);
 8001940:	4b06      	ldr	r3, [pc, #24]	@ (800195c <USART3_IRQHandler+0x6c>)
 8001942:	8b1b      	ldrh	r3, [r3, #24]
 8001944:	b29b      	uxth	r3, r3
 8001946:	4a05      	ldr	r2, [pc, #20]	@ (800195c <USART3_IRQHandler+0x6c>)
 8001948:	f023 0308 	bic.w	r3, r3, #8
 800194c:	b29b      	uxth	r3, r3
 800194e:	8313      	strh	r3, [r2, #24]

}
 8001950:	bf00      	nop
 8001952:	370c      	adds	r7, #12
 8001954:	46bd      	mov	sp, r7
 8001956:	f85d 7b04 	ldr.w	r7, [sp], #4
 800195a:	4770      	bx	lr
 800195c:	40004800 	.word	0x40004800
 8001960:	200000d0 	.word	0x200000d0
 8001964:	2000006c 	.word	0x2000006c

08001968 <sendStringUARTx>:

// Función que envía un dato por UART
void sendStringUARTx(USART_TypeDef *USARTx_, register const char *msg){
 8001968:	b480      	push	{r7}
 800196a:	b083      	sub	sp, #12
 800196c:	af00      	add	r7, sp, #0
 800196e:	6078      	str	r0, [r7, #4]
 8001970:	460b      	mov	r3, r1

    while(*msg)
 8001972:	e00c      	b.n	800198e <sendStringUARTx+0x26>
    {
    	USARTx_->TDR = *msg++;
 8001974:	461a      	mov	r2, r3
 8001976:	1c53      	adds	r3, r2, #1
 8001978:	7812      	ldrb	r2, [r2, #0]
 800197a:	4611      	mov	r1, r2
 800197c:	687a      	ldr	r2, [r7, #4]
 800197e:	8511      	strh	r1, [r2, #40]	@ 0x28
    	while(!(USARTx_->ISR & 0x080));
 8001980:	bf00      	nop
 8001982:	687a      	ldr	r2, [r7, #4]
 8001984:	69d2      	ldr	r2, [r2, #28]
 8001986:	f002 0280 	and.w	r2, r2, #128	@ 0x80
 800198a:	2a00      	cmp	r2, #0
 800198c:	d0f9      	beq.n	8001982 <sendStringUARTx+0x1a>
    while(*msg)
 800198e:	781a      	ldrb	r2, [r3, #0]
 8001990:	2a00      	cmp	r2, #0
 8001992:	d1ef      	bne.n	8001974 <sendStringUARTx+0xc>
    }
}
 8001994:	bf00      	nop
 8001996:	bf00      	nop
 8001998:	370c      	adds	r7, #12
 800199a:	46bd      	mov	sp, r7
 800199c:	f85d 7b04 	ldr.w	r7, [sp], #4
 80019a0:	4770      	bx	lr
	...

080019a4 <__NVIC_ClearPendingIRQ>:
  \details Clears the pending bit of a device specific interrupt in the NVIC pending register.
  \param [in]      IRQn  Device specific interrupt number.
  \note    IRQn must not be negative.
 */
__STATIC_INLINE void __NVIC_ClearPendingIRQ(IRQn_Type IRQn)
{
 80019a4:	b480      	push	{r7}
 80019a6:	b083      	sub	sp, #12
 80019a8:	af00      	add	r7, sp, #0
 80019aa:	4603      	mov	r3, r0
 80019ac:	71fb      	strb	r3, [r7, #7]
  if ((int32_t)(IRQn) >= 0)
 80019ae:	f997 3007 	ldrsb.w	r3, [r7, #7]
 80019b2:	2b00      	cmp	r3, #0
 80019b4:	db0c      	blt.n	80019d0 <__NVIC_ClearPendingIRQ+0x2c>
  {
    NVIC->ICPR[(((uint32_t)IRQn) >> 5UL)] = (uint32_t)(1UL << (((uint32_t)IRQn) & 0x1FUL));
 80019b6:	79fb      	ldrb	r3, [r7, #7]
 80019b8:	f003 021f 	and.w	r2, r3, #31
 80019bc:	4907      	ldr	r1, [pc, #28]	@ (80019dc <__NVIC_ClearPendingIRQ+0x38>)
 80019be:	f997 3007 	ldrsb.w	r3, [r7, #7]
 80019c2:	095b      	lsrs	r3, r3, #5
 80019c4:	2001      	movs	r0, #1
 80019c6:	fa00 f202 	lsl.w	r2, r0, r2
 80019ca:	3360      	adds	r3, #96	@ 0x60
 80019cc:	f841 2023 	str.w	r2, [r1, r3, lsl #2]
  }
}
 80019d0:	bf00      	nop
 80019d2:	370c      	adds	r7, #12
 80019d4:	46bd      	mov	sp, r7
 80019d6:	f85d 7b04 	ldr.w	r7, [sp], #4
 80019da:	4770      	bx	lr
 80019dc:	e000e100 	.word	0xe000e100

080019e0 <SSD1306_Init>:





void SSD1306_Init(void){
 80019e0:	b580      	push	{r7, lr}
 80019e2:	af00      	add	r7, sp, #0

	// Apaga la pantalla
	I2C_Tx_2Bytes(I2C3, AdreSSD1306, ControlbC, 0xAE);  // Display OFF
 80019e4:	23ae      	movs	r3, #174	@ 0xae
 80019e6:	2200      	movs	r2, #0
 80019e8:	213c      	movs	r1, #60	@ 0x3c
 80019ea:	484a      	ldr	r0, [pc, #296]	@ (8001b14 <SSD1306_Init+0x134>)
 80019ec:	f7ff fe6e 	bl	80016cc <I2C_Tx_2Bytes>

	// Configura la frecuencia del reloj
	I2C_Tx_2Bytes(I2C3, AdreSSD1306, ControlbC, 0xD5);  // Set display clock divide ratio/oscillator frequency
 80019f0:	23d5      	movs	r3, #213	@ 0xd5
 80019f2:	2200      	movs	r2, #0
 80019f4:	213c      	movs	r1, #60	@ 0x3c
 80019f6:	4847      	ldr	r0, [pc, #284]	@ (8001b14 <SSD1306_Init+0x134>)
 80019f8:	f7ff fe68 	bl	80016cc <I2C_Tx_2Bytes>
	I2C_Tx_2Bytes(I2C3, AdreSSD1306, ControlbC, 0x80);  // Recommended oscillator frequency
 80019fc:	2380      	movs	r3, #128	@ 0x80
 80019fe:	2200      	movs	r2, #0
 8001a00:	213c      	movs	r1, #60	@ 0x3c
 8001a02:	4844      	ldr	r0, [pc, #272]	@ (8001b14 <SSD1306_Init+0x134>)
 8001a04:	f7ff fe62 	bl	80016cc <I2C_Tx_2Bytes>

	// Configura la multiplexación (64 multiplex para 128x64)
	I2C_Tx_2Bytes(I2C3, AdreSSD1306, ControlbC, 0xA8);  // Set multiplex ratio
 8001a08:	23a8      	movs	r3, #168	@ 0xa8
 8001a0a:	2200      	movs	r2, #0
 8001a0c:	213c      	movs	r1, #60	@ 0x3c
 8001a0e:	4841      	ldr	r0, [pc, #260]	@ (8001b14 <SSD1306_Init+0x134>)
 8001a10:	f7ff fe5c 	bl	80016cc <I2C_Tx_2Bytes>
	I2C_Tx_2Bytes(I2C3, AdreSSD1306, ControlbC, 0x3F);  // Multiplex ratio is 64 (for 128x64 display)
 8001a14:	233f      	movs	r3, #63	@ 0x3f
 8001a16:	2200      	movs	r2, #0
 8001a18:	213c      	movs	r1, #60	@ 0x3c
 8001a1a:	483e      	ldr	r0, [pc, #248]	@ (8001b14 <SSD1306_Init+0x134>)
 8001a1c:	f7ff fe56 	bl	80016cc <I2C_Tx_2Bytes>

	// Configura el offset de la pantalla
	I2C_Tx_2Bytes(I2C3, AdreSSD1306, ControlbC, 0xD3);  // Set display offset
 8001a20:	23d3      	movs	r3, #211	@ 0xd3
 8001a22:	2200      	movs	r2, #0
 8001a24:	213c      	movs	r1, #60	@ 0x3c
 8001a26:	483b      	ldr	r0, [pc, #236]	@ (8001b14 <SSD1306_Init+0x134>)
 8001a28:	f7ff fe50 	bl	80016cc <I2C_Tx_2Bytes>
	I2C_Tx_2Bytes(I2C3, AdreSSD1306, ControlbC, 0x00);  // No offset
 8001a2c:	2300      	movs	r3, #0
 8001a2e:	2200      	movs	r2, #0
 8001a30:	213c      	movs	r1, #60	@ 0x3c
 8001a32:	4838      	ldr	r0, [pc, #224]	@ (8001b14 <SSD1306_Init+0x134>)
 8001a34:	f7ff fe4a 	bl	80016cc <I2C_Tx_2Bytes>

	// Línea de inicio de la pantalla en 0
	I2C_Tx_2Bytes(I2C3, AdreSSD1306, ControlbC, 0x40);  // Set display start line at 0
 8001a38:	2340      	movs	r3, #64	@ 0x40
 8001a3a:	2200      	movs	r2, #0
 8001a3c:	213c      	movs	r1, #60	@ 0x3c
 8001a3e:	4835      	ldr	r0, [pc, #212]	@ (8001b14 <SSD1306_Init+0x134>)
 8001a40:	f7ff fe44 	bl	80016cc <I2C_Tx_2Bytes>

	// Habilita el regulador de la bomba de carga (Charge Pump)
	I2C_Tx_2Bytes(I2C3, AdreSSD1306, ControlbC, 0x8D);  // Enable charge pump regulator
 8001a44:	238d      	movs	r3, #141	@ 0x8d
 8001a46:	2200      	movs	r2, #0
 8001a48:	213c      	movs	r1, #60	@ 0x3c
 8001a4a:	4832      	ldr	r0, [pc, #200]	@ (8001b14 <SSD1306_Init+0x134>)
 8001a4c:	f7ff fe3e 	bl	80016cc <I2C_Tx_2Bytes>
	I2C_Tx_2Bytes(I2C3, AdreSSD1306, ControlbC, 0x14);  // Enable charge pump
 8001a50:	2314      	movs	r3, #20
 8001a52:	2200      	movs	r2, #0
 8001a54:	213c      	movs	r1, #60	@ 0x3c
 8001a56:	482f      	ldr	r0, [pc, #188]	@ (8001b14 <SSD1306_Init+0x134>)
 8001a58:	f7ff fe38 	bl	80016cc <I2C_Tx_2Bytes>

	// Establece el modo de direccionamiento de memoria
	I2C_Tx_2Bytes(I2C3, AdreSSD1306, ControlbC, 0x20);  // Set memory addressing mode
 8001a5c:	2320      	movs	r3, #32
 8001a5e:	2200      	movs	r2, #0
 8001a60:	213c      	movs	r1, #60	@ 0x3c
 8001a62:	482c      	ldr	r0, [pc, #176]	@ (8001b14 <SSD1306_Init+0x134>)
 8001a64:	f7ff fe32 	bl	80016cc <I2C_Tx_2Bytes>
	I2C_Tx_2Bytes(I2C3, AdreSSD1306, ControlbC, 0x00);  // Horizontal addressing mode
 8001a68:	2300      	movs	r3, #0
 8001a6a:	2200      	movs	r2, #0
 8001a6c:	213c      	movs	r1, #60	@ 0x3c
 8001a6e:	4829      	ldr	r0, [pc, #164]	@ (8001b14 <SSD1306_Init+0x134>)
 8001a70:	f7ff fe2c 	bl	80016cc <I2C_Tx_2Bytes>

	// Reconfigura el mapa de segmentos (columna 127 mapeada a SEG0)
	I2C_Tx_2Bytes(I2C3, AdreSSD1306, ControlbC, 0xA1);  // Set segment re-map (A0/A1)
 8001a74:	23a1      	movs	r3, #161	@ 0xa1
 8001a76:	2200      	movs	r2, #0
 8001a78:	213c      	movs	r1, #60	@ 0x3c
 8001a7a:	4826      	ldr	r0, [pc, #152]	@ (8001b14 <SSD1306_Init+0x134>)
 8001a7c:	f7ff fe26 	bl	80016cc <I2C_Tx_2Bytes>

	// Configura la dirección de escaneo de salida COM
	I2C_Tx_2Bytes(I2C3, AdreSSD1306, ControlbC, 0xC8);  // Set COM output scan direction (C0/C8)
 8001a80:	23c8      	movs	r3, #200	@ 0xc8
 8001a82:	2200      	movs	r2, #0
 8001a84:	213c      	movs	r1, #60	@ 0x3c
 8001a86:	4823      	ldr	r0, [pc, #140]	@ (8001b14 <SSD1306_Init+0x134>)
 8001a88:	f7ff fe20 	bl	80016cc <I2C_Tx_2Bytes>

	// Configura los pines COM
	I2C_Tx_2Bytes(I2C3, AdreSSD1306, ControlbC, 0xDA);  // Set COM pins hardware configuration
 8001a8c:	23da      	movs	r3, #218	@ 0xda
 8001a8e:	2200      	movs	r2, #0
 8001a90:	213c      	movs	r1, #60	@ 0x3c
 8001a92:	4820      	ldr	r0, [pc, #128]	@ (8001b14 <SSD1306_Init+0x134>)
 8001a94:	f7ff fe1a 	bl	80016cc <I2C_Tx_2Bytes>
	I2C_Tx_2Bytes(I2C3, AdreSSD1306, ControlbC, 0x12);  // Alternative COM pin config
 8001a98:	2312      	movs	r3, #18
 8001a9a:	2200      	movs	r2, #0
 8001a9c:	213c      	movs	r1, #60	@ 0x3c
 8001a9e:	481d      	ldr	r0, [pc, #116]	@ (8001b14 <SSD1306_Init+0x134>)
 8001aa0:	f7ff fe14 	bl	80016cc <I2C_Tx_2Bytes>

	// Establece el nivel de contraste de la pantalla
	I2C_Tx_2Bytes(I2C3, AdreSSD1306, ControlbC, 0x81);  // Set contrast control
 8001aa4:	2381      	movs	r3, #129	@ 0x81
 8001aa6:	2200      	movs	r2, #0
 8001aa8:	213c      	movs	r1, #60	@ 0x3c
 8001aaa:	481a      	ldr	r0, [pc, #104]	@ (8001b14 <SSD1306_Init+0x134>)
 8001aac:	f7ff fe0e 	bl	80016cc <I2C_Tx_2Bytes>
	I2C_Tx_2Bytes(I2C3, AdreSSD1306, ControlbC, 0x7F);  // Contrast level (0x7F is typical)
 8001ab0:	237f      	movs	r3, #127	@ 0x7f
 8001ab2:	2200      	movs	r2, #0
 8001ab4:	213c      	movs	r1, #60	@ 0x3c
 8001ab6:	4817      	ldr	r0, [pc, #92]	@ (8001b14 <SSD1306_Init+0x134>)
 8001ab8:	f7ff fe08 	bl	80016cc <I2C_Tx_2Bytes>

	// Deshabilita la inversa de la pantalla
	I2C_Tx_2Bytes(I2C3, AdreSSD1306, ControlbC, 0xA4);  // Disable entire display ON (resume to RAM content)
 8001abc:	23a4      	movs	r3, #164	@ 0xa4
 8001abe:	2200      	movs	r2, #0
 8001ac0:	213c      	movs	r1, #60	@ 0x3c
 8001ac2:	4814      	ldr	r0, [pc, #80]	@ (8001b14 <SSD1306_Init+0x134>)
 8001ac4:	f7ff fe02 	bl	80016cc <I2C_Tx_2Bytes>

	// Establece el modo de visualización normal (sin inversión)
	I2C_Tx_2Bytes(I2C3, AdreSSD1306, ControlbC, 0xA6);  // Set normal display mode (A6 = normal, A7 = inverted)
 8001ac8:	23a6      	movs	r3, #166	@ 0xa6
 8001aca:	2200      	movs	r2, #0
 8001acc:	213c      	movs	r1, #60	@ 0x3c
 8001ace:	4811      	ldr	r0, [pc, #68]	@ (8001b14 <SSD1306_Init+0x134>)
 8001ad0:	f7ff fdfc 	bl	80016cc <I2C_Tx_2Bytes>

	// Configura el rango de desplazamiento (horizontal)
	I2C_Tx_2Bytes(I2C3, AdreSSD1306, ControlbC, 0xD9);  // Set pre-charge period
 8001ad4:	23d9      	movs	r3, #217	@ 0xd9
 8001ad6:	2200      	movs	r2, #0
 8001ad8:	213c      	movs	r1, #60	@ 0x3c
 8001ada:	480e      	ldr	r0, [pc, #56]	@ (8001b14 <SSD1306_Init+0x134>)
 8001adc:	f7ff fdf6 	bl	80016cc <I2C_Tx_2Bytes>
	I2C_Tx_2Bytes(I2C3, AdreSSD1306, ControlbC, 0xF1);  // Pre-charge period (recommended value)
 8001ae0:	23f1      	movs	r3, #241	@ 0xf1
 8001ae2:	2200      	movs	r2, #0
 8001ae4:	213c      	movs	r1, #60	@ 0x3c
 8001ae6:	480b      	ldr	r0, [pc, #44]	@ (8001b14 <SSD1306_Init+0x134>)
 8001ae8:	f7ff fdf0 	bl	80016cc <I2C_Tx_2Bytes>

	// Configura el voltaje de desactivación del driver
	I2C_Tx_2Bytes(I2C3, AdreSSD1306, ControlbC, 0xDB);  // Set VCOMH deselect level
 8001aec:	23db      	movs	r3, #219	@ 0xdb
 8001aee:	2200      	movs	r2, #0
 8001af0:	213c      	movs	r1, #60	@ 0x3c
 8001af2:	4808      	ldr	r0, [pc, #32]	@ (8001b14 <SSD1306_Init+0x134>)
 8001af4:	f7ff fdea 	bl	80016cc <I2C_Tx_2Bytes>
	I2C_Tx_2Bytes(I2C3, AdreSSD1306, ControlbC, 0x40);  // VCOMH deselect level (0x40 recommended)
 8001af8:	2340      	movs	r3, #64	@ 0x40
 8001afa:	2200      	movs	r2, #0
 8001afc:	213c      	movs	r1, #60	@ 0x3c
 8001afe:	4805      	ldr	r0, [pc, #20]	@ (8001b14 <SSD1306_Init+0x134>)
 8001b00:	f7ff fde4 	bl	80016cc <I2C_Tx_2Bytes>

	// Enciende la pantalla
	I2C_Tx_2Bytes(I2C3, AdreSSD1306, ControlbC, 0xAF);  // Display ON
 8001b04:	23af      	movs	r3, #175	@ 0xaf
 8001b06:	2200      	movs	r2, #0
 8001b08:	213c      	movs	r1, #60	@ 0x3c
 8001b0a:	4802      	ldr	r0, [pc, #8]	@ (8001b14 <SSD1306_Init+0x134>)
 8001b0c:	f7ff fdde 	bl	80016cc <I2C_Tx_2Bytes>
}
 8001b10:	bf00      	nop
 8001b12:	bd80      	pop	{r7, pc}
 8001b14:	40005c00 	.word	0x40005c00

08001b18 <SSD1306_WriteString>:



void SSD1306_WriteString(char *cadena){
 8001b18:	b580      	push	{r7, lr}
 8001b1a:	b084      	sub	sp, #16
 8001b1c:	af00      	add	r7, sp, #0
 8001b1e:	6078      	str	r0, [r7, #4]
    unsigned int i = 0;
 8001b20:	2300      	movs	r3, #0
 8001b22:	60fb      	str	r3, [r7, #12]
    while (cadena[i] != 0) {
 8001b24:	e009      	b.n	8001b3a <SSD1306_WriteString+0x22>
        SSD1306_WriteChar(cadena[i]); // Escribir cada carácter
 8001b26:	687a      	ldr	r2, [r7, #4]
 8001b28:	68fb      	ldr	r3, [r7, #12]
 8001b2a:	4413      	add	r3, r2
 8001b2c:	781b      	ldrb	r3, [r3, #0]
 8001b2e:	4618      	mov	r0, r3
 8001b30:	f000 f80e 	bl	8001b50 <SSD1306_WriteChar>
        i++;
 8001b34:	68fb      	ldr	r3, [r7, #12]
 8001b36:	3301      	adds	r3, #1
 8001b38:	60fb      	str	r3, [r7, #12]
    while (cadena[i] != 0) {
 8001b3a:	687a      	ldr	r2, [r7, #4]
 8001b3c:	68fb      	ldr	r3, [r7, #12]
 8001b3e:	4413      	add	r3, r2
 8001b40:	781b      	ldrb	r3, [r3, #0]
 8001b42:	2b00      	cmp	r3, #0
 8001b44:	d1ef      	bne.n	8001b26 <SSD1306_WriteString+0xe>
    }
}
 8001b46:	bf00      	nop
 8001b48:	bf00      	nop
 8001b4a:	3710      	adds	r7, #16
 8001b4c:	46bd      	mov	sp, r7
 8001b4e:	bd80      	pop	{r7, pc}

08001b50 <SSD1306_WriteChar>:



void SSD1306_WriteChar(char C){
 8001b50:	b580      	push	{r7, lr}
 8001b52:	b082      	sub	sp, #8
 8001b54:	af00      	add	r7, sp, #0
 8001b56:	4603      	mov	r3, r0
 8001b58:	71fb      	strb	r3, [r7, #7]

    switch (C){
 8001b5a:	79fb      	ldrb	r3, [r7, #7]
 8001b5c:	3b20      	subs	r3, #32
 8001b5e:	2b3a      	cmp	r3, #58	@ 0x3a
 8001b60:	f200 80f2 	bhi.w	8001d48 <SSD1306_WriteChar+0x1f8>
 8001b64:	a201      	add	r2, pc, #4	@ (adr r2, 8001b6c <SSD1306_WriteChar+0x1c>)
 8001b66:	f852 f023 	ldr.w	pc, [r2, r3, lsl #2]
 8001b6a:	bf00      	nop
 8001b6c:	08001cf5 	.word	0x08001cf5
 8001b70:	08001cfb 	.word	0x08001cfb
 8001b74:	08001d49 	.word	0x08001d49
 8001b78:	08001d49 	.word	0x08001d49
 8001b7c:	08001d49 	.word	0x08001d49
 8001b80:	08001d49 	.word	0x08001d49
 8001b84:	08001d49 	.word	0x08001d49
 8001b88:	08001d49 	.word	0x08001d49
 8001b8c:	08001d49 	.word	0x08001d49
 8001b90:	08001d49 	.word	0x08001d49
 8001b94:	08001d43 	.word	0x08001d43
 8001b98:	08001d49 	.word	0x08001d49
 8001b9c:	08001d49 	.word	0x08001d49
 8001ba0:	08001d49 	.word	0x08001d49
 8001ba4:	08001d49 	.word	0x08001d49
 8001ba8:	08001d49 	.word	0x08001d49
 8001bac:	08001d37 	.word	0x08001d37
 8001bb0:	08001d01 	.word	0x08001d01
 8001bb4:	08001d07 	.word	0x08001d07
 8001bb8:	08001d0d 	.word	0x08001d0d
 8001bbc:	08001d13 	.word	0x08001d13
 8001bc0:	08001d19 	.word	0x08001d19
 8001bc4:	08001d1f 	.word	0x08001d1f
 8001bc8:	08001d25 	.word	0x08001d25
 8001bcc:	08001d2b 	.word	0x08001d2b
 8001bd0:	08001d31 	.word	0x08001d31
 8001bd4:	08001d3d 	.word	0x08001d3d
 8001bd8:	08001d49 	.word	0x08001d49
 8001bdc:	08001d49 	.word	0x08001d49
 8001be0:	08001d49 	.word	0x08001d49
 8001be4:	08001d49 	.word	0x08001d49
 8001be8:	08001d49 	.word	0x08001d49
 8001bec:	08001d49 	.word	0x08001d49
 8001bf0:	08001c59 	.word	0x08001c59
 8001bf4:	08001c5f 	.word	0x08001c5f
 8001bf8:	08001c65 	.word	0x08001c65
 8001bfc:	08001c6b 	.word	0x08001c6b
 8001c00:	08001c71 	.word	0x08001c71
 8001c04:	08001c77 	.word	0x08001c77
 8001c08:	08001c7d 	.word	0x08001c7d
 8001c0c:	08001c83 	.word	0x08001c83
 8001c10:	08001c89 	.word	0x08001c89
 8001c14:	08001c8f 	.word	0x08001c8f
 8001c18:	08001c95 	.word	0x08001c95
 8001c1c:	08001c9b 	.word	0x08001c9b
 8001c20:	08001ca1 	.word	0x08001ca1
 8001c24:	08001ca7 	.word	0x08001ca7
 8001c28:	08001cad 	.word	0x08001cad
 8001c2c:	08001cb3 	.word	0x08001cb3
 8001c30:	08001cb9 	.word	0x08001cb9
 8001c34:	08001cbf 	.word	0x08001cbf
 8001c38:	08001cc5 	.word	0x08001cc5
 8001c3c:	08001ccb 	.word	0x08001ccb
 8001c40:	08001cd1 	.word	0x08001cd1
 8001c44:	08001cd7 	.word	0x08001cd7
 8001c48:	08001cdd 	.word	0x08001cdd
 8001c4c:	08001ce3 	.word	0x08001ce3
 8001c50:	08001ce9 	.word	0x08001ce9
 8001c54:	08001cef 	.word	0x08001cef
    case 'A':
Letra_A();
 8001c58:	f000 f87a 	bl	8001d50 <Letra_A>
    break;
 8001c5c:	e074      	b.n	8001d48 <SSD1306_WriteChar+0x1f8>
    case 'B':
Letra_B();
 8001c5e:	f000 f8a7 	bl	8001db0 <Letra_B>
    break;
 8001c62:	e071      	b.n	8001d48 <SSD1306_WriteChar+0x1f8>
    case 'C':
Letra_C();
 8001c64:	f000 f8d4 	bl	8001e10 <Letra_C>
    break;
 8001c68:	e06e      	b.n	8001d48 <SSD1306_WriteChar+0x1f8>
    case 'D':
Letra_D();
 8001c6a:	f000 f901 	bl	8001e70 <Letra_D>
    break;
 8001c6e:	e06b      	b.n	8001d48 <SSD1306_WriteChar+0x1f8>
    case 'E':
Letra_E();
 8001c70:	f000 f92e 	bl	8001ed0 <Letra_E>
    break;
 8001c74:	e068      	b.n	8001d48 <SSD1306_WriteChar+0x1f8>
    case 'F':
Letra_F();
 8001c76:	f000 f95b 	bl	8001f30 <Letra_F>
    break;
 8001c7a:	e065      	b.n	8001d48 <SSD1306_WriteChar+0x1f8>
    case 'G':
Letra_G();
 8001c7c:	f000 f988 	bl	8001f90 <Letra_G>
    break;
 8001c80:	e062      	b.n	8001d48 <SSD1306_WriteChar+0x1f8>
    case 'H':
Letra_H();
 8001c82:	f000 f9b5 	bl	8001ff0 <Letra_H>
    break;
 8001c86:	e05f      	b.n	8001d48 <SSD1306_WriteChar+0x1f8>
    case 'I':
Letra_I();
 8001c88:	f000 f9e2 	bl	8002050 <Letra_I>
    break;
 8001c8c:	e05c      	b.n	8001d48 <SSD1306_WriteChar+0x1f8>
    case 'J':
Letra_J();
 8001c8e:	f000 fa0f 	bl	80020b0 <Letra_J>
    break;
 8001c92:	e059      	b.n	8001d48 <SSD1306_WriteChar+0x1f8>
    case 'K':
Letra_K();
 8001c94:	f000 fa3c 	bl	8002110 <Letra_K>
    break;
 8001c98:	e056      	b.n	8001d48 <SSD1306_WriteChar+0x1f8>
    case 'L':
Letra_L();
 8001c9a:	f000 fa69 	bl	8002170 <Letra_L>
    break;
 8001c9e:	e053      	b.n	8001d48 <SSD1306_WriteChar+0x1f8>
    case 'M':
Letra_M();
 8001ca0:	f000 fa96 	bl	80021d0 <Letra_M>
    break;
 8001ca4:	e050      	b.n	8001d48 <SSD1306_WriteChar+0x1f8>
    case 'N':
Letra_N();
 8001ca6:	f000 fac9 	bl	800223c <Letra_N>
    break;
 8001caa:	e04d      	b.n	8001d48 <SSD1306_WriteChar+0x1f8>
    case 'O':
Letra_O();
 8001cac:	f000 faf6 	bl	800229c <Letra_O>
    break;
 8001cb0:	e04a      	b.n	8001d48 <SSD1306_WriteChar+0x1f8>
    case 'P':
Letra_P();
 8001cb2:	f000 fb23 	bl	80022fc <Letra_P>
    break;
 8001cb6:	e047      	b.n	8001d48 <SSD1306_WriteChar+0x1f8>
    case 'Q':
Letra_Q();
 8001cb8:	f000 fb50 	bl	800235c <Letra_Q>
    break;
 8001cbc:	e044      	b.n	8001d48 <SSD1306_WriteChar+0x1f8>
    case 'R':
Letra_R();
 8001cbe:	f000 fb7d 	bl	80023bc <Letra_R>
    break;
 8001cc2:	e041      	b.n	8001d48 <SSD1306_WriteChar+0x1f8>
    case 'S':
Letra_S();
 8001cc4:	f000 fbaa 	bl	800241c <Letra_S>
    break;
 8001cc8:	e03e      	b.n	8001d48 <SSD1306_WriteChar+0x1f8>
    case 'T':
Letra_T();
 8001cca:	f000 fbd7 	bl	800247c <Letra_T>
    break;
 8001cce:	e03b      	b.n	8001d48 <SSD1306_WriteChar+0x1f8>
    case 'U':
Letra_U();
 8001cd0:	f000 fc04 	bl	80024dc <Letra_U>
    break;
 8001cd4:	e038      	b.n	8001d48 <SSD1306_WriteChar+0x1f8>
    case 'V':
Letra_U();
 8001cd6:	f000 fc01 	bl	80024dc <Letra_U>
    break;
 8001cda:	e035      	b.n	8001d48 <SSD1306_WriteChar+0x1f8>
     case 'W':
Letra_W();
 8001cdc:	f000 fc2e 	bl	800253c <Letra_W>
    break;
 8001ce0:	e032      	b.n	8001d48 <SSD1306_WriteChar+0x1f8>
    case 'X':
Letra_X();
 8001ce2:	f000 fc61 	bl	80025a8 <Letra_X>
    break;
 8001ce6:	e02f      	b.n	8001d48 <SSD1306_WriteChar+0x1f8>
    case 'Y':
Letra_Y();
 8001ce8:	f000 fc8e 	bl	8002608 <Letra_Y>
    break;
 8001cec:	e02c      	b.n	8001d48 <SSD1306_WriteChar+0x1f8>
        case 'Z':
Letra_Z();
 8001cee:	f000 fcbb 	bl	8002668 <Letra_Z>
    break;
 8001cf2:	e029      	b.n	8001d48 <SSD1306_WriteChar+0x1f8>
        case ' ':
Espacio();
 8001cf4:	f000 fce8 	bl	80026c8 <Espacio>
    break;
 8001cf8:	e026      	b.n	8001d48 <SSD1306_WriteChar+0x1f8>
        case '!':
Admiracion();
 8001cfa:	f000 fd03 	bl	8002704 <Admiracion>
    break;
 8001cfe:	e023      	b.n	8001d48 <SSD1306_WriteChar+0x1f8>
        case '1':
Numero_1();
 8001d00:	f000 fd24 	bl	800274c <Numero_1>
    break;
 8001d04:	e020      	b.n	8001d48 <SSD1306_WriteChar+0x1f8>
        case '2':
Numero_2();
 8001d06:	f000 fd45 	bl	8002794 <Numero_2>
    break;
 8001d0a:	e01d      	b.n	8001d48 <SSD1306_WriteChar+0x1f8>
        case '3':
Numero_3();
 8001d0c:	f000 fd72 	bl	80027f4 <Numero_3>
    break;
 8001d10:	e01a      	b.n	8001d48 <SSD1306_WriteChar+0x1f8>
        case '4':
Numero_4();
 8001d12:	f000 fd9f 	bl	8002854 <Numero_4>
    break;
 8001d16:	e017      	b.n	8001d48 <SSD1306_WriteChar+0x1f8>
        case '5':
Numero_5();
 8001d18:	f000 fdcc 	bl	80028b4 <Numero_5>
    break;
 8001d1c:	e014      	b.n	8001d48 <SSD1306_WriteChar+0x1f8>
        case '6':
Numero_6();
 8001d1e:	f000 fdf9 	bl	8002914 <Numero_6>
    break;
 8001d22:	e011      	b.n	8001d48 <SSD1306_WriteChar+0x1f8>
        case '7':
Numero_7();
 8001d24:	f000 fe26 	bl	8002974 <Numero_7>
    break;
 8001d28:	e00e      	b.n	8001d48 <SSD1306_WriteChar+0x1f8>
        case '8':
Numero_8();
 8001d2a:	f000 fe53 	bl	80029d4 <Numero_8>
    break;
 8001d2e:	e00b      	b.n	8001d48 <SSD1306_WriteChar+0x1f8>
        case '9':
Numero_9();
 8001d30:	f000 fe80 	bl	8002a34 <Numero_9>
    break;
 8001d34:	e008      	b.n	8001d48 <SSD1306_WriteChar+0x1f8>
        case '0':
Numero_0();
 8001d36:	f000 fead 	bl	8002a94 <Numero_0>
    break;
 8001d3a:	e005      	b.n	8001d48 <SSD1306_WriteChar+0x1f8>
        case ':':
DosPuntos();
 8001d3c:	f000 feda 	bl	8002af4 <DosPuntos>
    break;
 8001d40:	e002      	b.n	8001d48 <SSD1306_WriteChar+0x1f8>
        case '*':
Simbolo_Grados();
 8001d42:	f000 feef 	bl	8002b24 <Simbolo_Grados>
	break;
 8001d46:	bf00      	nop
    }
}
 8001d48:	bf00      	nop
 8001d4a:	3708      	adds	r7, #8
 8001d4c:	46bd      	mov	sp, r7
 8001d4e:	bd80      	pop	{r7, pc}

08001d50 <Letra_A>:




//LETRAS
void Letra_A(void){
 8001d50:	b580      	push	{r7, lr}
 8001d52:	af00      	add	r7, sp, #0
    I2C_Tx_2Bytes(I2C3, AdreSSD1306, ControlbD, 0xFF);
 8001d54:	23ff      	movs	r3, #255	@ 0xff
 8001d56:	2240      	movs	r2, #64	@ 0x40
 8001d58:	213c      	movs	r1, #60	@ 0x3c
 8001d5a:	4814      	ldr	r0, [pc, #80]	@ (8001dac <Letra_A+0x5c>)
 8001d5c:	f7ff fcb6 	bl	80016cc <I2C_Tx_2Bytes>
    I2C_Tx_2Bytes(I2C3, AdreSSD1306, ControlbD, 0xFF);
 8001d60:	23ff      	movs	r3, #255	@ 0xff
 8001d62:	2240      	movs	r2, #64	@ 0x40
 8001d64:	213c      	movs	r1, #60	@ 0x3c
 8001d66:	4811      	ldr	r0, [pc, #68]	@ (8001dac <Letra_A+0x5c>)
 8001d68:	f7ff fcb0 	bl	80016cc <I2C_Tx_2Bytes>
    I2C_Tx_2Bytes(I2C3, AdreSSD1306, ControlbD, 0x33);
 8001d6c:	2333      	movs	r3, #51	@ 0x33
 8001d6e:	2240      	movs	r2, #64	@ 0x40
 8001d70:	213c      	movs	r1, #60	@ 0x3c
 8001d72:	480e      	ldr	r0, [pc, #56]	@ (8001dac <Letra_A+0x5c>)
 8001d74:	f7ff fcaa 	bl	80016cc <I2C_Tx_2Bytes>
    I2C_Tx_2Bytes(I2C3, AdreSSD1306, ControlbD, 0x33);
 8001d78:	2333      	movs	r3, #51	@ 0x33
 8001d7a:	2240      	movs	r2, #64	@ 0x40
 8001d7c:	213c      	movs	r1, #60	@ 0x3c
 8001d7e:	480b      	ldr	r0, [pc, #44]	@ (8001dac <Letra_A+0x5c>)
 8001d80:	f7ff fca4 	bl	80016cc <I2C_Tx_2Bytes>
    I2C_Tx_2Bytes(I2C3, AdreSSD1306, ControlbD, 0xFF);
 8001d84:	23ff      	movs	r3, #255	@ 0xff
 8001d86:	2240      	movs	r2, #64	@ 0x40
 8001d88:	213c      	movs	r1, #60	@ 0x3c
 8001d8a:	4808      	ldr	r0, [pc, #32]	@ (8001dac <Letra_A+0x5c>)
 8001d8c:	f7ff fc9e 	bl	80016cc <I2C_Tx_2Bytes>
    I2C_Tx_2Bytes(I2C3, AdreSSD1306, ControlbD, 0xFF);
 8001d90:	23ff      	movs	r3, #255	@ 0xff
 8001d92:	2240      	movs	r2, #64	@ 0x40
 8001d94:	213c      	movs	r1, #60	@ 0x3c
 8001d96:	4805      	ldr	r0, [pc, #20]	@ (8001dac <Letra_A+0x5c>)
 8001d98:	f7ff fc98 	bl	80016cc <I2C_Tx_2Bytes>
    I2C_Tx_2Bytes(I2C3, AdreSSD1306, ControlbD, 0x00);
 8001d9c:	2300      	movs	r3, #0
 8001d9e:	2240      	movs	r2, #64	@ 0x40
 8001da0:	213c      	movs	r1, #60	@ 0x3c
 8001da2:	4802      	ldr	r0, [pc, #8]	@ (8001dac <Letra_A+0x5c>)
 8001da4:	f7ff fc92 	bl	80016cc <I2C_Tx_2Bytes>
}
 8001da8:	bf00      	nop
 8001daa:	bd80      	pop	{r7, pc}
 8001dac:	40005c00 	.word	0x40005c00

08001db0 <Letra_B>:
void Letra_B(void){
 8001db0:	b580      	push	{r7, lr}
 8001db2:	af00      	add	r7, sp, #0

    I2C_Tx_2Bytes(I2C3, AdreSSD1306, ControlbD, 0xFF);
 8001db4:	23ff      	movs	r3, #255	@ 0xff
 8001db6:	2240      	movs	r2, #64	@ 0x40
 8001db8:	213c      	movs	r1, #60	@ 0x3c
 8001dba:	4814      	ldr	r0, [pc, #80]	@ (8001e0c <Letra_B+0x5c>)
 8001dbc:	f7ff fc86 	bl	80016cc <I2C_Tx_2Bytes>
    I2C_Tx_2Bytes(I2C3, AdreSSD1306, ControlbD, 0xFF);
 8001dc0:	23ff      	movs	r3, #255	@ 0xff
 8001dc2:	2240      	movs	r2, #64	@ 0x40
 8001dc4:	213c      	movs	r1, #60	@ 0x3c
 8001dc6:	4811      	ldr	r0, [pc, #68]	@ (8001e0c <Letra_B+0x5c>)
 8001dc8:	f7ff fc80 	bl	80016cc <I2C_Tx_2Bytes>
    I2C_Tx_2Bytes(I2C3, AdreSSD1306, ControlbD, 0x99);
 8001dcc:	2399      	movs	r3, #153	@ 0x99
 8001dce:	2240      	movs	r2, #64	@ 0x40
 8001dd0:	213c      	movs	r1, #60	@ 0x3c
 8001dd2:	480e      	ldr	r0, [pc, #56]	@ (8001e0c <Letra_B+0x5c>)
 8001dd4:	f7ff fc7a 	bl	80016cc <I2C_Tx_2Bytes>
    I2C_Tx_2Bytes(I2C3, AdreSSD1306, ControlbD, 0x99);
 8001dd8:	2399      	movs	r3, #153	@ 0x99
 8001dda:	2240      	movs	r2, #64	@ 0x40
 8001ddc:	213c      	movs	r1, #60	@ 0x3c
 8001dde:	480b      	ldr	r0, [pc, #44]	@ (8001e0c <Letra_B+0x5c>)
 8001de0:	f7ff fc74 	bl	80016cc <I2C_Tx_2Bytes>
    I2C_Tx_2Bytes(I2C3, AdreSSD1306, ControlbD, 0xFF);
 8001de4:	23ff      	movs	r3, #255	@ 0xff
 8001de6:	2240      	movs	r2, #64	@ 0x40
 8001de8:	213c      	movs	r1, #60	@ 0x3c
 8001dea:	4808      	ldr	r0, [pc, #32]	@ (8001e0c <Letra_B+0x5c>)
 8001dec:	f7ff fc6e 	bl	80016cc <I2C_Tx_2Bytes>
    I2C_Tx_2Bytes(I2C3, AdreSSD1306, ControlbD, 0xFF);
 8001df0:	23ff      	movs	r3, #255	@ 0xff
 8001df2:	2240      	movs	r2, #64	@ 0x40
 8001df4:	213c      	movs	r1, #60	@ 0x3c
 8001df6:	4805      	ldr	r0, [pc, #20]	@ (8001e0c <Letra_B+0x5c>)
 8001df8:	f7ff fc68 	bl	80016cc <I2C_Tx_2Bytes>
    I2C_Tx_2Bytes(I2C3, AdreSSD1306, ControlbD, 0x00);
 8001dfc:	2300      	movs	r3, #0
 8001dfe:	2240      	movs	r2, #64	@ 0x40
 8001e00:	213c      	movs	r1, #60	@ 0x3c
 8001e02:	4802      	ldr	r0, [pc, #8]	@ (8001e0c <Letra_B+0x5c>)
 8001e04:	f7ff fc62 	bl	80016cc <I2C_Tx_2Bytes>
}
 8001e08:	bf00      	nop
 8001e0a:	bd80      	pop	{r7, pc}
 8001e0c:	40005c00 	.word	0x40005c00

08001e10 <Letra_C>:
void Letra_C(void){
 8001e10:	b580      	push	{r7, lr}
 8001e12:	af00      	add	r7, sp, #0
    I2C_Tx_2Bytes(I2C3, AdreSSD1306, ControlbD, 0xFF);
 8001e14:	23ff      	movs	r3, #255	@ 0xff
 8001e16:	2240      	movs	r2, #64	@ 0x40
 8001e18:	213c      	movs	r1, #60	@ 0x3c
 8001e1a:	4814      	ldr	r0, [pc, #80]	@ (8001e6c <Letra_C+0x5c>)
 8001e1c:	f7ff fc56 	bl	80016cc <I2C_Tx_2Bytes>
    I2C_Tx_2Bytes(I2C3, AdreSSD1306, ControlbD, 0xFF);
 8001e20:	23ff      	movs	r3, #255	@ 0xff
 8001e22:	2240      	movs	r2, #64	@ 0x40
 8001e24:	213c      	movs	r1, #60	@ 0x3c
 8001e26:	4811      	ldr	r0, [pc, #68]	@ (8001e6c <Letra_C+0x5c>)
 8001e28:	f7ff fc50 	bl	80016cc <I2C_Tx_2Bytes>
    I2C_Tx_2Bytes(I2C3, AdreSSD1306, ControlbD, 0xC3);
 8001e2c:	23c3      	movs	r3, #195	@ 0xc3
 8001e2e:	2240      	movs	r2, #64	@ 0x40
 8001e30:	213c      	movs	r1, #60	@ 0x3c
 8001e32:	480e      	ldr	r0, [pc, #56]	@ (8001e6c <Letra_C+0x5c>)
 8001e34:	f7ff fc4a 	bl	80016cc <I2C_Tx_2Bytes>
    I2C_Tx_2Bytes(I2C3, AdreSSD1306, ControlbD, 0xC3);
 8001e38:	23c3      	movs	r3, #195	@ 0xc3
 8001e3a:	2240      	movs	r2, #64	@ 0x40
 8001e3c:	213c      	movs	r1, #60	@ 0x3c
 8001e3e:	480b      	ldr	r0, [pc, #44]	@ (8001e6c <Letra_C+0x5c>)
 8001e40:	f7ff fc44 	bl	80016cc <I2C_Tx_2Bytes>
    I2C_Tx_2Bytes(I2C3, AdreSSD1306, ControlbD, 0xC3);
 8001e44:	23c3      	movs	r3, #195	@ 0xc3
 8001e46:	2240      	movs	r2, #64	@ 0x40
 8001e48:	213c      	movs	r1, #60	@ 0x3c
 8001e4a:	4808      	ldr	r0, [pc, #32]	@ (8001e6c <Letra_C+0x5c>)
 8001e4c:	f7ff fc3e 	bl	80016cc <I2C_Tx_2Bytes>
    I2C_Tx_2Bytes(I2C3, AdreSSD1306, ControlbD, 0xC3);
 8001e50:	23c3      	movs	r3, #195	@ 0xc3
 8001e52:	2240      	movs	r2, #64	@ 0x40
 8001e54:	213c      	movs	r1, #60	@ 0x3c
 8001e56:	4805      	ldr	r0, [pc, #20]	@ (8001e6c <Letra_C+0x5c>)
 8001e58:	f7ff fc38 	bl	80016cc <I2C_Tx_2Bytes>
    I2C_Tx_2Bytes(I2C3, AdreSSD1306, ControlbD, 0x00);
 8001e5c:	2300      	movs	r3, #0
 8001e5e:	2240      	movs	r2, #64	@ 0x40
 8001e60:	213c      	movs	r1, #60	@ 0x3c
 8001e62:	4802      	ldr	r0, [pc, #8]	@ (8001e6c <Letra_C+0x5c>)
 8001e64:	f7ff fc32 	bl	80016cc <I2C_Tx_2Bytes>

}
 8001e68:	bf00      	nop
 8001e6a:	bd80      	pop	{r7, pc}
 8001e6c:	40005c00 	.word	0x40005c00

08001e70 <Letra_D>:
void Letra_D(void){
 8001e70:	b580      	push	{r7, lr}
 8001e72:	af00      	add	r7, sp, #0
    I2C_Tx_2Bytes(I2C3, AdreSSD1306, ControlbD, 0xFF);
 8001e74:	23ff      	movs	r3, #255	@ 0xff
 8001e76:	2240      	movs	r2, #64	@ 0x40
 8001e78:	213c      	movs	r1, #60	@ 0x3c
 8001e7a:	4814      	ldr	r0, [pc, #80]	@ (8001ecc <Letra_D+0x5c>)
 8001e7c:	f7ff fc26 	bl	80016cc <I2C_Tx_2Bytes>
    I2C_Tx_2Bytes(I2C3, AdreSSD1306, ControlbD, 0xFF);
 8001e80:	23ff      	movs	r3, #255	@ 0xff
 8001e82:	2240      	movs	r2, #64	@ 0x40
 8001e84:	213c      	movs	r1, #60	@ 0x3c
 8001e86:	4811      	ldr	r0, [pc, #68]	@ (8001ecc <Letra_D+0x5c>)
 8001e88:	f7ff fc20 	bl	80016cc <I2C_Tx_2Bytes>
    I2C_Tx_2Bytes(I2C3, AdreSSD1306, ControlbD, 0xC3);
 8001e8c:	23c3      	movs	r3, #195	@ 0xc3
 8001e8e:	2240      	movs	r2, #64	@ 0x40
 8001e90:	213c      	movs	r1, #60	@ 0x3c
 8001e92:	480e      	ldr	r0, [pc, #56]	@ (8001ecc <Letra_D+0x5c>)
 8001e94:	f7ff fc1a 	bl	80016cc <I2C_Tx_2Bytes>
    I2C_Tx_2Bytes(I2C3, AdreSSD1306, ControlbD, 0xC3);
 8001e98:	23c3      	movs	r3, #195	@ 0xc3
 8001e9a:	2240      	movs	r2, #64	@ 0x40
 8001e9c:	213c      	movs	r1, #60	@ 0x3c
 8001e9e:	480b      	ldr	r0, [pc, #44]	@ (8001ecc <Letra_D+0x5c>)
 8001ea0:	f7ff fc14 	bl	80016cc <I2C_Tx_2Bytes>
    I2C_Tx_2Bytes(I2C3, AdreSSD1306, ControlbD, 0xFF);
 8001ea4:	23ff      	movs	r3, #255	@ 0xff
 8001ea6:	2240      	movs	r2, #64	@ 0x40
 8001ea8:	213c      	movs	r1, #60	@ 0x3c
 8001eaa:	4808      	ldr	r0, [pc, #32]	@ (8001ecc <Letra_D+0x5c>)
 8001eac:	f7ff fc0e 	bl	80016cc <I2C_Tx_2Bytes>
    I2C_Tx_2Bytes(I2C3, AdreSSD1306, ControlbD, 0xFF);
 8001eb0:	23ff      	movs	r3, #255	@ 0xff
 8001eb2:	2240      	movs	r2, #64	@ 0x40
 8001eb4:	213c      	movs	r1, #60	@ 0x3c
 8001eb6:	4805      	ldr	r0, [pc, #20]	@ (8001ecc <Letra_D+0x5c>)
 8001eb8:	f7ff fc08 	bl	80016cc <I2C_Tx_2Bytes>
    I2C_Tx_2Bytes(I2C3, AdreSSD1306, ControlbD, 0x00);
 8001ebc:	2300      	movs	r3, #0
 8001ebe:	2240      	movs	r2, #64	@ 0x40
 8001ec0:	213c      	movs	r1, #60	@ 0x3c
 8001ec2:	4802      	ldr	r0, [pc, #8]	@ (8001ecc <Letra_D+0x5c>)
 8001ec4:	f7ff fc02 	bl	80016cc <I2C_Tx_2Bytes>
}
 8001ec8:	bf00      	nop
 8001eca:	bd80      	pop	{r7, pc}
 8001ecc:	40005c00 	.word	0x40005c00

08001ed0 <Letra_E>:

void Letra_E(void){
 8001ed0:	b580      	push	{r7, lr}
 8001ed2:	af00      	add	r7, sp, #0

    I2C_Tx_2Bytes(I2C3, AdreSSD1306, ControlbD, 0xFF);
 8001ed4:	23ff      	movs	r3, #255	@ 0xff
 8001ed6:	2240      	movs	r2, #64	@ 0x40
 8001ed8:	213c      	movs	r1, #60	@ 0x3c
 8001eda:	4814      	ldr	r0, [pc, #80]	@ (8001f2c <Letra_E+0x5c>)
 8001edc:	f7ff fbf6 	bl	80016cc <I2C_Tx_2Bytes>
    I2C_Tx_2Bytes(I2C3, AdreSSD1306, ControlbD, 0xFF);
 8001ee0:	23ff      	movs	r3, #255	@ 0xff
 8001ee2:	2240      	movs	r2, #64	@ 0x40
 8001ee4:	213c      	movs	r1, #60	@ 0x3c
 8001ee6:	4811      	ldr	r0, [pc, #68]	@ (8001f2c <Letra_E+0x5c>)
 8001ee8:	f7ff fbf0 	bl	80016cc <I2C_Tx_2Bytes>
    I2C_Tx_2Bytes(I2C3, AdreSSD1306, ControlbD, 0xDB);
 8001eec:	23db      	movs	r3, #219	@ 0xdb
 8001eee:	2240      	movs	r2, #64	@ 0x40
 8001ef0:	213c      	movs	r1, #60	@ 0x3c
 8001ef2:	480e      	ldr	r0, [pc, #56]	@ (8001f2c <Letra_E+0x5c>)
 8001ef4:	f7ff fbea 	bl	80016cc <I2C_Tx_2Bytes>
    I2C_Tx_2Bytes(I2C3, AdreSSD1306, ControlbD, 0xDB);
 8001ef8:	23db      	movs	r3, #219	@ 0xdb
 8001efa:	2240      	movs	r2, #64	@ 0x40
 8001efc:	213c      	movs	r1, #60	@ 0x3c
 8001efe:	480b      	ldr	r0, [pc, #44]	@ (8001f2c <Letra_E+0x5c>)
 8001f00:	f7ff fbe4 	bl	80016cc <I2C_Tx_2Bytes>
    I2C_Tx_2Bytes(I2C3, AdreSSD1306, ControlbD, 0xDB);
 8001f04:	23db      	movs	r3, #219	@ 0xdb
 8001f06:	2240      	movs	r2, #64	@ 0x40
 8001f08:	213c      	movs	r1, #60	@ 0x3c
 8001f0a:	4808      	ldr	r0, [pc, #32]	@ (8001f2c <Letra_E+0x5c>)
 8001f0c:	f7ff fbde 	bl	80016cc <I2C_Tx_2Bytes>
    I2C_Tx_2Bytes(I2C3, AdreSSD1306, ControlbD, 0xDB);
 8001f10:	23db      	movs	r3, #219	@ 0xdb
 8001f12:	2240      	movs	r2, #64	@ 0x40
 8001f14:	213c      	movs	r1, #60	@ 0x3c
 8001f16:	4805      	ldr	r0, [pc, #20]	@ (8001f2c <Letra_E+0x5c>)
 8001f18:	f7ff fbd8 	bl	80016cc <I2C_Tx_2Bytes>
    I2C_Tx_2Bytes(I2C3, AdreSSD1306, ControlbD, 0x00);
 8001f1c:	2300      	movs	r3, #0
 8001f1e:	2240      	movs	r2, #64	@ 0x40
 8001f20:	213c      	movs	r1, #60	@ 0x3c
 8001f22:	4802      	ldr	r0, [pc, #8]	@ (8001f2c <Letra_E+0x5c>)
 8001f24:	f7ff fbd2 	bl	80016cc <I2C_Tx_2Bytes>

}
 8001f28:	bf00      	nop
 8001f2a:	bd80      	pop	{r7, pc}
 8001f2c:	40005c00 	.word	0x40005c00

08001f30 <Letra_F>:
void Letra_F(void){
 8001f30:	b580      	push	{r7, lr}
 8001f32:	af00      	add	r7, sp, #0

    I2C_Tx_2Bytes(I2C3, AdreSSD1306, ControlbD, 0xFF);
 8001f34:	23ff      	movs	r3, #255	@ 0xff
 8001f36:	2240      	movs	r2, #64	@ 0x40
 8001f38:	213c      	movs	r1, #60	@ 0x3c
 8001f3a:	4814      	ldr	r0, [pc, #80]	@ (8001f8c <Letra_F+0x5c>)
 8001f3c:	f7ff fbc6 	bl	80016cc <I2C_Tx_2Bytes>
    I2C_Tx_2Bytes(I2C3, AdreSSD1306, ControlbD, 0xFF);
 8001f40:	23ff      	movs	r3, #255	@ 0xff
 8001f42:	2240      	movs	r2, #64	@ 0x40
 8001f44:	213c      	movs	r1, #60	@ 0x3c
 8001f46:	4811      	ldr	r0, [pc, #68]	@ (8001f8c <Letra_F+0x5c>)
 8001f48:	f7ff fbc0 	bl	80016cc <I2C_Tx_2Bytes>
    I2C_Tx_2Bytes(I2C3, AdreSSD1306, ControlbD, 0x33);
 8001f4c:	2333      	movs	r3, #51	@ 0x33
 8001f4e:	2240      	movs	r2, #64	@ 0x40
 8001f50:	213c      	movs	r1, #60	@ 0x3c
 8001f52:	480e      	ldr	r0, [pc, #56]	@ (8001f8c <Letra_F+0x5c>)
 8001f54:	f7ff fbba 	bl	80016cc <I2C_Tx_2Bytes>
    I2C_Tx_2Bytes(I2C3, AdreSSD1306, ControlbD, 0x33);
 8001f58:	2333      	movs	r3, #51	@ 0x33
 8001f5a:	2240      	movs	r2, #64	@ 0x40
 8001f5c:	213c      	movs	r1, #60	@ 0x3c
 8001f5e:	480b      	ldr	r0, [pc, #44]	@ (8001f8c <Letra_F+0x5c>)
 8001f60:	f7ff fbb4 	bl	80016cc <I2C_Tx_2Bytes>
    I2C_Tx_2Bytes(I2C3, AdreSSD1306, ControlbD, 0x03);
 8001f64:	2303      	movs	r3, #3
 8001f66:	2240      	movs	r2, #64	@ 0x40
 8001f68:	213c      	movs	r1, #60	@ 0x3c
 8001f6a:	4808      	ldr	r0, [pc, #32]	@ (8001f8c <Letra_F+0x5c>)
 8001f6c:	f7ff fbae 	bl	80016cc <I2C_Tx_2Bytes>
    I2C_Tx_2Bytes(I2C3, AdreSSD1306, ControlbD, 0x03);
 8001f70:	2303      	movs	r3, #3
 8001f72:	2240      	movs	r2, #64	@ 0x40
 8001f74:	213c      	movs	r1, #60	@ 0x3c
 8001f76:	4805      	ldr	r0, [pc, #20]	@ (8001f8c <Letra_F+0x5c>)
 8001f78:	f7ff fba8 	bl	80016cc <I2C_Tx_2Bytes>
    I2C_Tx_2Bytes(I2C3, AdreSSD1306, ControlbD, 0x00);
 8001f7c:	2300      	movs	r3, #0
 8001f7e:	2240      	movs	r2, #64	@ 0x40
 8001f80:	213c      	movs	r1, #60	@ 0x3c
 8001f82:	4802      	ldr	r0, [pc, #8]	@ (8001f8c <Letra_F+0x5c>)
 8001f84:	f7ff fba2 	bl	80016cc <I2C_Tx_2Bytes>

}
 8001f88:	bf00      	nop
 8001f8a:	bd80      	pop	{r7, pc}
 8001f8c:	40005c00 	.word	0x40005c00

08001f90 <Letra_G>:
void Letra_G(void){
 8001f90:	b580      	push	{r7, lr}
 8001f92:	af00      	add	r7, sp, #0
    I2C_Tx_2Bytes(I2C3, AdreSSD1306, ControlbD, 0xFF);
 8001f94:	23ff      	movs	r3, #255	@ 0xff
 8001f96:	2240      	movs	r2, #64	@ 0x40
 8001f98:	213c      	movs	r1, #60	@ 0x3c
 8001f9a:	4814      	ldr	r0, [pc, #80]	@ (8001fec <Letra_G+0x5c>)
 8001f9c:	f7ff fb96 	bl	80016cc <I2C_Tx_2Bytes>
    I2C_Tx_2Bytes(I2C3, AdreSSD1306, ControlbD, 0xFF);
 8001fa0:	23ff      	movs	r3, #255	@ 0xff
 8001fa2:	2240      	movs	r2, #64	@ 0x40
 8001fa4:	213c      	movs	r1, #60	@ 0x3c
 8001fa6:	4811      	ldr	r0, [pc, #68]	@ (8001fec <Letra_G+0x5c>)
 8001fa8:	f7ff fb90 	bl	80016cc <I2C_Tx_2Bytes>
    I2C_Tx_2Bytes(I2C3, AdreSSD1306, ControlbD, 0xDB);
 8001fac:	23db      	movs	r3, #219	@ 0xdb
 8001fae:	2240      	movs	r2, #64	@ 0x40
 8001fb0:	213c      	movs	r1, #60	@ 0x3c
 8001fb2:	480e      	ldr	r0, [pc, #56]	@ (8001fec <Letra_G+0x5c>)
 8001fb4:	f7ff fb8a 	bl	80016cc <I2C_Tx_2Bytes>
    I2C_Tx_2Bytes(I2C3, AdreSSD1306, ControlbD, 0xDB);
 8001fb8:	23db      	movs	r3, #219	@ 0xdb
 8001fba:	2240      	movs	r2, #64	@ 0x40
 8001fbc:	213c      	movs	r1, #60	@ 0x3c
 8001fbe:	480b      	ldr	r0, [pc, #44]	@ (8001fec <Letra_G+0x5c>)
 8001fc0:	f7ff fb84 	bl	80016cc <I2C_Tx_2Bytes>
    I2C_Tx_2Bytes(I2C3, AdreSSD1306, ControlbD, 0xF8);
 8001fc4:	23f8      	movs	r3, #248	@ 0xf8
 8001fc6:	2240      	movs	r2, #64	@ 0x40
 8001fc8:	213c      	movs	r1, #60	@ 0x3c
 8001fca:	4808      	ldr	r0, [pc, #32]	@ (8001fec <Letra_G+0x5c>)
 8001fcc:	f7ff fb7e 	bl	80016cc <I2C_Tx_2Bytes>
    I2C_Tx_2Bytes(I2C3, AdreSSD1306, ControlbD, 0xF8);
 8001fd0:	23f8      	movs	r3, #248	@ 0xf8
 8001fd2:	2240      	movs	r2, #64	@ 0x40
 8001fd4:	213c      	movs	r1, #60	@ 0x3c
 8001fd6:	4805      	ldr	r0, [pc, #20]	@ (8001fec <Letra_G+0x5c>)
 8001fd8:	f7ff fb78 	bl	80016cc <I2C_Tx_2Bytes>
    I2C_Tx_2Bytes(I2C3, AdreSSD1306, ControlbD, 0x00);
 8001fdc:	2300      	movs	r3, #0
 8001fde:	2240      	movs	r2, #64	@ 0x40
 8001fe0:	213c      	movs	r1, #60	@ 0x3c
 8001fe2:	4802      	ldr	r0, [pc, #8]	@ (8001fec <Letra_G+0x5c>)
 8001fe4:	f7ff fb72 	bl	80016cc <I2C_Tx_2Bytes>
}
 8001fe8:	bf00      	nop
 8001fea:	bd80      	pop	{r7, pc}
 8001fec:	40005c00 	.word	0x40005c00

08001ff0 <Letra_H>:
void Letra_H(void){
 8001ff0:	b580      	push	{r7, lr}
 8001ff2:	af00      	add	r7, sp, #0
    I2C_Tx_2Bytes(I2C3, AdreSSD1306, ControlbD, 0xFF);
 8001ff4:	23ff      	movs	r3, #255	@ 0xff
 8001ff6:	2240      	movs	r2, #64	@ 0x40
 8001ff8:	213c      	movs	r1, #60	@ 0x3c
 8001ffa:	4814      	ldr	r0, [pc, #80]	@ (800204c <Letra_H+0x5c>)
 8001ffc:	f7ff fb66 	bl	80016cc <I2C_Tx_2Bytes>
    I2C_Tx_2Bytes(I2C3, AdreSSD1306, ControlbD, 0xFF);
 8002000:	23ff      	movs	r3, #255	@ 0xff
 8002002:	2240      	movs	r2, #64	@ 0x40
 8002004:	213c      	movs	r1, #60	@ 0x3c
 8002006:	4811      	ldr	r0, [pc, #68]	@ (800204c <Letra_H+0x5c>)
 8002008:	f7ff fb60 	bl	80016cc <I2C_Tx_2Bytes>
    I2C_Tx_2Bytes(I2C3, AdreSSD1306, ControlbD, 0x18);
 800200c:	2318      	movs	r3, #24
 800200e:	2240      	movs	r2, #64	@ 0x40
 8002010:	213c      	movs	r1, #60	@ 0x3c
 8002012:	480e      	ldr	r0, [pc, #56]	@ (800204c <Letra_H+0x5c>)
 8002014:	f7ff fb5a 	bl	80016cc <I2C_Tx_2Bytes>
    I2C_Tx_2Bytes(I2C3, AdreSSD1306, ControlbD, 0x18);
 8002018:	2318      	movs	r3, #24
 800201a:	2240      	movs	r2, #64	@ 0x40
 800201c:	213c      	movs	r1, #60	@ 0x3c
 800201e:	480b      	ldr	r0, [pc, #44]	@ (800204c <Letra_H+0x5c>)
 8002020:	f7ff fb54 	bl	80016cc <I2C_Tx_2Bytes>
    I2C_Tx_2Bytes(I2C3, AdreSSD1306, ControlbD, 0xFF);
 8002024:	23ff      	movs	r3, #255	@ 0xff
 8002026:	2240      	movs	r2, #64	@ 0x40
 8002028:	213c      	movs	r1, #60	@ 0x3c
 800202a:	4808      	ldr	r0, [pc, #32]	@ (800204c <Letra_H+0x5c>)
 800202c:	f7ff fb4e 	bl	80016cc <I2C_Tx_2Bytes>
    I2C_Tx_2Bytes(I2C3, AdreSSD1306, ControlbD, 0xFF);
 8002030:	23ff      	movs	r3, #255	@ 0xff
 8002032:	2240      	movs	r2, #64	@ 0x40
 8002034:	213c      	movs	r1, #60	@ 0x3c
 8002036:	4805      	ldr	r0, [pc, #20]	@ (800204c <Letra_H+0x5c>)
 8002038:	f7ff fb48 	bl	80016cc <I2C_Tx_2Bytes>
    I2C_Tx_2Bytes(I2C3, AdreSSD1306, ControlbD, 0x00);
 800203c:	2300      	movs	r3, #0
 800203e:	2240      	movs	r2, #64	@ 0x40
 8002040:	213c      	movs	r1, #60	@ 0x3c
 8002042:	4802      	ldr	r0, [pc, #8]	@ (800204c <Letra_H+0x5c>)
 8002044:	f7ff fb42 	bl	80016cc <I2C_Tx_2Bytes>
}
 8002048:	bf00      	nop
 800204a:	bd80      	pop	{r7, pc}
 800204c:	40005c00 	.word	0x40005c00

08002050 <Letra_I>:
void Letra_I(void){
 8002050:	b580      	push	{r7, lr}
 8002052:	af00      	add	r7, sp, #0
    I2C_Tx_2Bytes(I2C3, AdreSSD1306, ControlbD, 0xC3);
 8002054:	23c3      	movs	r3, #195	@ 0xc3
 8002056:	2240      	movs	r2, #64	@ 0x40
 8002058:	213c      	movs	r1, #60	@ 0x3c
 800205a:	4814      	ldr	r0, [pc, #80]	@ (80020ac <Letra_I+0x5c>)
 800205c:	f7ff fb36 	bl	80016cc <I2C_Tx_2Bytes>
    I2C_Tx_2Bytes(I2C3, AdreSSD1306, ControlbD, 0xC3);
 8002060:	23c3      	movs	r3, #195	@ 0xc3
 8002062:	2240      	movs	r2, #64	@ 0x40
 8002064:	213c      	movs	r1, #60	@ 0x3c
 8002066:	4811      	ldr	r0, [pc, #68]	@ (80020ac <Letra_I+0x5c>)
 8002068:	f7ff fb30 	bl	80016cc <I2C_Tx_2Bytes>
    I2C_Tx_2Bytes(I2C3, AdreSSD1306, ControlbD, 0xFF);
 800206c:	23ff      	movs	r3, #255	@ 0xff
 800206e:	2240      	movs	r2, #64	@ 0x40
 8002070:	213c      	movs	r1, #60	@ 0x3c
 8002072:	480e      	ldr	r0, [pc, #56]	@ (80020ac <Letra_I+0x5c>)
 8002074:	f7ff fb2a 	bl	80016cc <I2C_Tx_2Bytes>
    I2C_Tx_2Bytes(I2C3, AdreSSD1306, ControlbD, 0xFF);
 8002078:	23ff      	movs	r3, #255	@ 0xff
 800207a:	2240      	movs	r2, #64	@ 0x40
 800207c:	213c      	movs	r1, #60	@ 0x3c
 800207e:	480b      	ldr	r0, [pc, #44]	@ (80020ac <Letra_I+0x5c>)
 8002080:	f7ff fb24 	bl	80016cc <I2C_Tx_2Bytes>
    I2C_Tx_2Bytes(I2C3, AdreSSD1306, ControlbD, 0xC3);
 8002084:	23c3      	movs	r3, #195	@ 0xc3
 8002086:	2240      	movs	r2, #64	@ 0x40
 8002088:	213c      	movs	r1, #60	@ 0x3c
 800208a:	4808      	ldr	r0, [pc, #32]	@ (80020ac <Letra_I+0x5c>)
 800208c:	f7ff fb1e 	bl	80016cc <I2C_Tx_2Bytes>
    I2C_Tx_2Bytes(I2C3, AdreSSD1306, ControlbD, 0xC3);
 8002090:	23c3      	movs	r3, #195	@ 0xc3
 8002092:	2240      	movs	r2, #64	@ 0x40
 8002094:	213c      	movs	r1, #60	@ 0x3c
 8002096:	4805      	ldr	r0, [pc, #20]	@ (80020ac <Letra_I+0x5c>)
 8002098:	f7ff fb18 	bl	80016cc <I2C_Tx_2Bytes>
    I2C_Tx_2Bytes(I2C3, AdreSSD1306, ControlbD, 0x00);
 800209c:	2300      	movs	r3, #0
 800209e:	2240      	movs	r2, #64	@ 0x40
 80020a0:	213c      	movs	r1, #60	@ 0x3c
 80020a2:	4802      	ldr	r0, [pc, #8]	@ (80020ac <Letra_I+0x5c>)
 80020a4:	f7ff fb12 	bl	80016cc <I2C_Tx_2Bytes>

}
 80020a8:	bf00      	nop
 80020aa:	bd80      	pop	{r7, pc}
 80020ac:	40005c00 	.word	0x40005c00

080020b0 <Letra_J>:
void Letra_J(void){
 80020b0:	b580      	push	{r7, lr}
 80020b2:	af00      	add	r7, sp, #0
    I2C_Tx_2Bytes(I2C3, AdreSSD1306, ControlbD, 0xC3);
 80020b4:	23c3      	movs	r3, #195	@ 0xc3
 80020b6:	2240      	movs	r2, #64	@ 0x40
 80020b8:	213c      	movs	r1, #60	@ 0x3c
 80020ba:	4814      	ldr	r0, [pc, #80]	@ (800210c <Letra_J+0x5c>)
 80020bc:	f7ff fb06 	bl	80016cc <I2C_Tx_2Bytes>
    I2C_Tx_2Bytes(I2C3, AdreSSD1306, ControlbD, 0xC3);
 80020c0:	23c3      	movs	r3, #195	@ 0xc3
 80020c2:	2240      	movs	r2, #64	@ 0x40
 80020c4:	213c      	movs	r1, #60	@ 0x3c
 80020c6:	4811      	ldr	r0, [pc, #68]	@ (800210c <Letra_J+0x5c>)
 80020c8:	f7ff fb00 	bl	80016cc <I2C_Tx_2Bytes>
    I2C_Tx_2Bytes(I2C3, AdreSSD1306, ControlbD, 0xFF);
 80020cc:	23ff      	movs	r3, #255	@ 0xff
 80020ce:	2240      	movs	r2, #64	@ 0x40
 80020d0:	213c      	movs	r1, #60	@ 0x3c
 80020d2:	480e      	ldr	r0, [pc, #56]	@ (800210c <Letra_J+0x5c>)
 80020d4:	f7ff fafa 	bl	80016cc <I2C_Tx_2Bytes>
    I2C_Tx_2Bytes(I2C3, AdreSSD1306, ControlbD, 0xFF);
 80020d8:	23ff      	movs	r3, #255	@ 0xff
 80020da:	2240      	movs	r2, #64	@ 0x40
 80020dc:	213c      	movs	r1, #60	@ 0x3c
 80020de:	480b      	ldr	r0, [pc, #44]	@ (800210c <Letra_J+0x5c>)
 80020e0:	f7ff faf4 	bl	80016cc <I2C_Tx_2Bytes>
    I2C_Tx_2Bytes(I2C3, AdreSSD1306, ControlbD, 0x03);
 80020e4:	2303      	movs	r3, #3
 80020e6:	2240      	movs	r2, #64	@ 0x40
 80020e8:	213c      	movs	r1, #60	@ 0x3c
 80020ea:	4808      	ldr	r0, [pc, #32]	@ (800210c <Letra_J+0x5c>)
 80020ec:	f7ff faee 	bl	80016cc <I2C_Tx_2Bytes>
    I2C_Tx_2Bytes(I2C3, AdreSSD1306, ControlbD, 0x03);
 80020f0:	2303      	movs	r3, #3
 80020f2:	2240      	movs	r2, #64	@ 0x40
 80020f4:	213c      	movs	r1, #60	@ 0x3c
 80020f6:	4805      	ldr	r0, [pc, #20]	@ (800210c <Letra_J+0x5c>)
 80020f8:	f7ff fae8 	bl	80016cc <I2C_Tx_2Bytes>
    I2C_Tx_2Bytes(I2C3, AdreSSD1306, ControlbD, 0x00);
 80020fc:	2300      	movs	r3, #0
 80020fe:	2240      	movs	r2, #64	@ 0x40
 8002100:	213c      	movs	r1, #60	@ 0x3c
 8002102:	4802      	ldr	r0, [pc, #8]	@ (800210c <Letra_J+0x5c>)
 8002104:	f7ff fae2 	bl	80016cc <I2C_Tx_2Bytes>
}
 8002108:	bf00      	nop
 800210a:	bd80      	pop	{r7, pc}
 800210c:	40005c00 	.word	0x40005c00

08002110 <Letra_K>:
void Letra_K(void){
 8002110:	b580      	push	{r7, lr}
 8002112:	af00      	add	r7, sp, #0
    I2C_Tx_2Bytes(I2C3, AdreSSD1306, ControlbD, 0xFF);
 8002114:	23ff      	movs	r3, #255	@ 0xff
 8002116:	2240      	movs	r2, #64	@ 0x40
 8002118:	213c      	movs	r1, #60	@ 0x3c
 800211a:	4814      	ldr	r0, [pc, #80]	@ (800216c <Letra_K+0x5c>)
 800211c:	f7ff fad6 	bl	80016cc <I2C_Tx_2Bytes>
    I2C_Tx_2Bytes(I2C3, AdreSSD1306, ControlbD, 0xFF);
 8002120:	23ff      	movs	r3, #255	@ 0xff
 8002122:	2240      	movs	r2, #64	@ 0x40
 8002124:	213c      	movs	r1, #60	@ 0x3c
 8002126:	4811      	ldr	r0, [pc, #68]	@ (800216c <Letra_K+0x5c>)
 8002128:	f7ff fad0 	bl	80016cc <I2C_Tx_2Bytes>
    I2C_Tx_2Bytes(I2C3, AdreSSD1306, ControlbD, 0x18);
 800212c:	2318      	movs	r3, #24
 800212e:	2240      	movs	r2, #64	@ 0x40
 8002130:	213c      	movs	r1, #60	@ 0x3c
 8002132:	480e      	ldr	r0, [pc, #56]	@ (800216c <Letra_K+0x5c>)
 8002134:	f7ff faca 	bl	80016cc <I2C_Tx_2Bytes>
    I2C_Tx_2Bytes(I2C3, AdreSSD1306, ControlbD, 0x3C);
 8002138:	233c      	movs	r3, #60	@ 0x3c
 800213a:	2240      	movs	r2, #64	@ 0x40
 800213c:	213c      	movs	r1, #60	@ 0x3c
 800213e:	480b      	ldr	r0, [pc, #44]	@ (800216c <Letra_K+0x5c>)
 8002140:	f7ff fac4 	bl	80016cc <I2C_Tx_2Bytes>
    I2C_Tx_2Bytes(I2C3, AdreSSD1306, ControlbD, 0x66);
 8002144:	2366      	movs	r3, #102	@ 0x66
 8002146:	2240      	movs	r2, #64	@ 0x40
 8002148:	213c      	movs	r1, #60	@ 0x3c
 800214a:	4808      	ldr	r0, [pc, #32]	@ (800216c <Letra_K+0x5c>)
 800214c:	f7ff fabe 	bl	80016cc <I2C_Tx_2Bytes>
    I2C_Tx_2Bytes(I2C3, AdreSSD1306, ControlbD, 0xC3);
 8002150:	23c3      	movs	r3, #195	@ 0xc3
 8002152:	2240      	movs	r2, #64	@ 0x40
 8002154:	213c      	movs	r1, #60	@ 0x3c
 8002156:	4805      	ldr	r0, [pc, #20]	@ (800216c <Letra_K+0x5c>)
 8002158:	f7ff fab8 	bl	80016cc <I2C_Tx_2Bytes>
    I2C_Tx_2Bytes(I2C3, AdreSSD1306, ControlbD, 0x00);
 800215c:	2300      	movs	r3, #0
 800215e:	2240      	movs	r2, #64	@ 0x40
 8002160:	213c      	movs	r1, #60	@ 0x3c
 8002162:	4802      	ldr	r0, [pc, #8]	@ (800216c <Letra_K+0x5c>)
 8002164:	f7ff fab2 	bl	80016cc <I2C_Tx_2Bytes>
}
 8002168:	bf00      	nop
 800216a:	bd80      	pop	{r7, pc}
 800216c:	40005c00 	.word	0x40005c00

08002170 <Letra_L>:

void Letra_L(void){
 8002170:	b580      	push	{r7, lr}
 8002172:	af00      	add	r7, sp, #0
    I2C_Tx_2Bytes(I2C3, AdreSSD1306, ControlbD, 0xFF);
 8002174:	23ff      	movs	r3, #255	@ 0xff
 8002176:	2240      	movs	r2, #64	@ 0x40
 8002178:	213c      	movs	r1, #60	@ 0x3c
 800217a:	4814      	ldr	r0, [pc, #80]	@ (80021cc <Letra_L+0x5c>)
 800217c:	f7ff faa6 	bl	80016cc <I2C_Tx_2Bytes>
    I2C_Tx_2Bytes(I2C3, AdreSSD1306, ControlbD, 0xFF);
 8002180:	23ff      	movs	r3, #255	@ 0xff
 8002182:	2240      	movs	r2, #64	@ 0x40
 8002184:	213c      	movs	r1, #60	@ 0x3c
 8002186:	4811      	ldr	r0, [pc, #68]	@ (80021cc <Letra_L+0x5c>)
 8002188:	f7ff faa0 	bl	80016cc <I2C_Tx_2Bytes>
    I2C_Tx_2Bytes(I2C3, AdreSSD1306, ControlbD, 0xFF);
 800218c:	23ff      	movs	r3, #255	@ 0xff
 800218e:	2240      	movs	r2, #64	@ 0x40
 8002190:	213c      	movs	r1, #60	@ 0x3c
 8002192:	480e      	ldr	r0, [pc, #56]	@ (80021cc <Letra_L+0x5c>)
 8002194:	f7ff fa9a 	bl	80016cc <I2C_Tx_2Bytes>
    I2C_Tx_2Bytes(I2C3, AdreSSD1306, ControlbD, 0xC0);
 8002198:	23c0      	movs	r3, #192	@ 0xc0
 800219a:	2240      	movs	r2, #64	@ 0x40
 800219c:	213c      	movs	r1, #60	@ 0x3c
 800219e:	480b      	ldr	r0, [pc, #44]	@ (80021cc <Letra_L+0x5c>)
 80021a0:	f7ff fa94 	bl	80016cc <I2C_Tx_2Bytes>
    I2C_Tx_2Bytes(I2C3, AdreSSD1306, ControlbD, 0xC0);
 80021a4:	23c0      	movs	r3, #192	@ 0xc0
 80021a6:	2240      	movs	r2, #64	@ 0x40
 80021a8:	213c      	movs	r1, #60	@ 0x3c
 80021aa:	4808      	ldr	r0, [pc, #32]	@ (80021cc <Letra_L+0x5c>)
 80021ac:	f7ff fa8e 	bl	80016cc <I2C_Tx_2Bytes>
    I2C_Tx_2Bytes(I2C3, AdreSSD1306, ControlbD, 0xC0);
 80021b0:	23c0      	movs	r3, #192	@ 0xc0
 80021b2:	2240      	movs	r2, #64	@ 0x40
 80021b4:	213c      	movs	r1, #60	@ 0x3c
 80021b6:	4805      	ldr	r0, [pc, #20]	@ (80021cc <Letra_L+0x5c>)
 80021b8:	f7ff fa88 	bl	80016cc <I2C_Tx_2Bytes>
    I2C_Tx_2Bytes(I2C3, AdreSSD1306, ControlbD, 0x00);
 80021bc:	2300      	movs	r3, #0
 80021be:	2240      	movs	r2, #64	@ 0x40
 80021c0:	213c      	movs	r1, #60	@ 0x3c
 80021c2:	4802      	ldr	r0, [pc, #8]	@ (80021cc <Letra_L+0x5c>)
 80021c4:	f7ff fa82 	bl	80016cc <I2C_Tx_2Bytes>

}
 80021c8:	bf00      	nop
 80021ca:	bd80      	pop	{r7, pc}
 80021cc:	40005c00 	.word	0x40005c00

080021d0 <Letra_M>:
void Letra_M(void){
 80021d0:	b580      	push	{r7, lr}
 80021d2:	af00      	add	r7, sp, #0

    I2C_Tx_2Bytes(I2C3, AdreSSD1306, ControlbD, 0xFF);
 80021d4:	23ff      	movs	r3, #255	@ 0xff
 80021d6:	2240      	movs	r2, #64	@ 0x40
 80021d8:	213c      	movs	r1, #60	@ 0x3c
 80021da:	4817      	ldr	r0, [pc, #92]	@ (8002238 <Letra_M+0x68>)
 80021dc:	f7ff fa76 	bl	80016cc <I2C_Tx_2Bytes>
    I2C_Tx_2Bytes(I2C3, AdreSSD1306, ControlbD, 0xFF);
 80021e0:	23ff      	movs	r3, #255	@ 0xff
 80021e2:	2240      	movs	r2, #64	@ 0x40
 80021e4:	213c      	movs	r1, #60	@ 0x3c
 80021e6:	4814      	ldr	r0, [pc, #80]	@ (8002238 <Letra_M+0x68>)
 80021e8:	f7ff fa70 	bl	80016cc <I2C_Tx_2Bytes>
    I2C_Tx_2Bytes(I2C3, AdreSSD1306, ControlbD, 0x0C);
 80021ec:	230c      	movs	r3, #12
 80021ee:	2240      	movs	r2, #64	@ 0x40
 80021f0:	213c      	movs	r1, #60	@ 0x3c
 80021f2:	4811      	ldr	r0, [pc, #68]	@ (8002238 <Letra_M+0x68>)
 80021f4:	f7ff fa6a 	bl	80016cc <I2C_Tx_2Bytes>
    I2C_Tx_2Bytes(I2C3, AdreSSD1306, ControlbD, 0x1C);
 80021f8:	231c      	movs	r3, #28
 80021fa:	2240      	movs	r2, #64	@ 0x40
 80021fc:	213c      	movs	r1, #60	@ 0x3c
 80021fe:	480e      	ldr	r0, [pc, #56]	@ (8002238 <Letra_M+0x68>)
 8002200:	f7ff fa64 	bl	80016cc <I2C_Tx_2Bytes>
    I2C_Tx_2Bytes(I2C3, AdreSSD1306, ControlbD, 0x0C);
 8002204:	230c      	movs	r3, #12
 8002206:	2240      	movs	r2, #64	@ 0x40
 8002208:	213c      	movs	r1, #60	@ 0x3c
 800220a:	480b      	ldr	r0, [pc, #44]	@ (8002238 <Letra_M+0x68>)
 800220c:	f7ff fa5e 	bl	80016cc <I2C_Tx_2Bytes>
    I2C_Tx_2Bytes(I2C3, AdreSSD1306, ControlbD, 0xFF);
 8002210:	23ff      	movs	r3, #255	@ 0xff
 8002212:	2240      	movs	r2, #64	@ 0x40
 8002214:	213c      	movs	r1, #60	@ 0x3c
 8002216:	4808      	ldr	r0, [pc, #32]	@ (8002238 <Letra_M+0x68>)
 8002218:	f7ff fa58 	bl	80016cc <I2C_Tx_2Bytes>
    I2C_Tx_2Bytes(I2C3, AdreSSD1306, ControlbD, 0xFF);
 800221c:	23ff      	movs	r3, #255	@ 0xff
 800221e:	2240      	movs	r2, #64	@ 0x40
 8002220:	213c      	movs	r1, #60	@ 0x3c
 8002222:	4805      	ldr	r0, [pc, #20]	@ (8002238 <Letra_M+0x68>)
 8002224:	f7ff fa52 	bl	80016cc <I2C_Tx_2Bytes>
    I2C_Tx_2Bytes(I2C3, AdreSSD1306, ControlbD, 0x00);
 8002228:	2300      	movs	r3, #0
 800222a:	2240      	movs	r2, #64	@ 0x40
 800222c:	213c      	movs	r1, #60	@ 0x3c
 800222e:	4802      	ldr	r0, [pc, #8]	@ (8002238 <Letra_M+0x68>)
 8002230:	f7ff fa4c 	bl	80016cc <I2C_Tx_2Bytes>

}
 8002234:	bf00      	nop
 8002236:	bd80      	pop	{r7, pc}
 8002238:	40005c00 	.word	0x40005c00

0800223c <Letra_N>:
void Letra_N(void){
 800223c:	b580      	push	{r7, lr}
 800223e:	af00      	add	r7, sp, #0

    I2C_Tx_2Bytes(I2C3, AdreSSD1306, ControlbD, 0xFF);
 8002240:	23ff      	movs	r3, #255	@ 0xff
 8002242:	2240      	movs	r2, #64	@ 0x40
 8002244:	213c      	movs	r1, #60	@ 0x3c
 8002246:	4814      	ldr	r0, [pc, #80]	@ (8002298 <Letra_N+0x5c>)
 8002248:	f7ff fa40 	bl	80016cc <I2C_Tx_2Bytes>
    I2C_Tx_2Bytes(I2C3, AdreSSD1306, ControlbD, 0xFF);
 800224c:	23ff      	movs	r3, #255	@ 0xff
 800224e:	2240      	movs	r2, #64	@ 0x40
 8002250:	213c      	movs	r1, #60	@ 0x3c
 8002252:	4811      	ldr	r0, [pc, #68]	@ (8002298 <Letra_N+0x5c>)
 8002254:	f7ff fa3a 	bl	80016cc <I2C_Tx_2Bytes>
    I2C_Tx_2Bytes(I2C3, AdreSSD1306, ControlbD, 0x1C);
 8002258:	231c      	movs	r3, #28
 800225a:	2240      	movs	r2, #64	@ 0x40
 800225c:	213c      	movs	r1, #60	@ 0x3c
 800225e:	480e      	ldr	r0, [pc, #56]	@ (8002298 <Letra_N+0x5c>)
 8002260:	f7ff fa34 	bl	80016cc <I2C_Tx_2Bytes>
    I2C_Tx_2Bytes(I2C3, AdreSSD1306, ControlbD, 0x38);
 8002264:	2338      	movs	r3, #56	@ 0x38
 8002266:	2240      	movs	r2, #64	@ 0x40
 8002268:	213c      	movs	r1, #60	@ 0x3c
 800226a:	480b      	ldr	r0, [pc, #44]	@ (8002298 <Letra_N+0x5c>)
 800226c:	f7ff fa2e 	bl	80016cc <I2C_Tx_2Bytes>
    I2C_Tx_2Bytes(I2C3, AdreSSD1306, ControlbD, 0xFF);
 8002270:	23ff      	movs	r3, #255	@ 0xff
 8002272:	2240      	movs	r2, #64	@ 0x40
 8002274:	213c      	movs	r1, #60	@ 0x3c
 8002276:	4808      	ldr	r0, [pc, #32]	@ (8002298 <Letra_N+0x5c>)
 8002278:	f7ff fa28 	bl	80016cc <I2C_Tx_2Bytes>
    I2C_Tx_2Bytes(I2C3, AdreSSD1306, ControlbD, 0xFF);
 800227c:	23ff      	movs	r3, #255	@ 0xff
 800227e:	2240      	movs	r2, #64	@ 0x40
 8002280:	213c      	movs	r1, #60	@ 0x3c
 8002282:	4805      	ldr	r0, [pc, #20]	@ (8002298 <Letra_N+0x5c>)
 8002284:	f7ff fa22 	bl	80016cc <I2C_Tx_2Bytes>
    I2C_Tx_2Bytes(I2C3, AdreSSD1306, ControlbD, 0x00);
 8002288:	2300      	movs	r3, #0
 800228a:	2240      	movs	r2, #64	@ 0x40
 800228c:	213c      	movs	r1, #60	@ 0x3c
 800228e:	4802      	ldr	r0, [pc, #8]	@ (8002298 <Letra_N+0x5c>)
 8002290:	f7ff fa1c 	bl	80016cc <I2C_Tx_2Bytes>

}
 8002294:	bf00      	nop
 8002296:	bd80      	pop	{r7, pc}
 8002298:	40005c00 	.word	0x40005c00

0800229c <Letra_O>:
void Letra_O(void){
 800229c:	b580      	push	{r7, lr}
 800229e:	af00      	add	r7, sp, #0


    I2C_Tx_2Bytes(I2C3, AdreSSD1306, ControlbD, 0xFF);
 80022a0:	23ff      	movs	r3, #255	@ 0xff
 80022a2:	2240      	movs	r2, #64	@ 0x40
 80022a4:	213c      	movs	r1, #60	@ 0x3c
 80022a6:	4814      	ldr	r0, [pc, #80]	@ (80022f8 <Letra_O+0x5c>)
 80022a8:	f7ff fa10 	bl	80016cc <I2C_Tx_2Bytes>
    I2C_Tx_2Bytes(I2C3, AdreSSD1306, ControlbD, 0xFF);
 80022ac:	23ff      	movs	r3, #255	@ 0xff
 80022ae:	2240      	movs	r2, #64	@ 0x40
 80022b0:	213c      	movs	r1, #60	@ 0x3c
 80022b2:	4811      	ldr	r0, [pc, #68]	@ (80022f8 <Letra_O+0x5c>)
 80022b4:	f7ff fa0a 	bl	80016cc <I2C_Tx_2Bytes>
    I2C_Tx_2Bytes(I2C3, AdreSSD1306, ControlbD, 0xC3);
 80022b8:	23c3      	movs	r3, #195	@ 0xc3
 80022ba:	2240      	movs	r2, #64	@ 0x40
 80022bc:	213c      	movs	r1, #60	@ 0x3c
 80022be:	480e      	ldr	r0, [pc, #56]	@ (80022f8 <Letra_O+0x5c>)
 80022c0:	f7ff fa04 	bl	80016cc <I2C_Tx_2Bytes>
    I2C_Tx_2Bytes(I2C3, AdreSSD1306, ControlbD, 0xC3);
 80022c4:	23c3      	movs	r3, #195	@ 0xc3
 80022c6:	2240      	movs	r2, #64	@ 0x40
 80022c8:	213c      	movs	r1, #60	@ 0x3c
 80022ca:	480b      	ldr	r0, [pc, #44]	@ (80022f8 <Letra_O+0x5c>)
 80022cc:	f7ff f9fe 	bl	80016cc <I2C_Tx_2Bytes>
    I2C_Tx_2Bytes(I2C3, AdreSSD1306, ControlbD, 0xFF);
 80022d0:	23ff      	movs	r3, #255	@ 0xff
 80022d2:	2240      	movs	r2, #64	@ 0x40
 80022d4:	213c      	movs	r1, #60	@ 0x3c
 80022d6:	4808      	ldr	r0, [pc, #32]	@ (80022f8 <Letra_O+0x5c>)
 80022d8:	f7ff f9f8 	bl	80016cc <I2C_Tx_2Bytes>
    I2C_Tx_2Bytes(I2C3, AdreSSD1306, ControlbD, 0xFF);
 80022dc:	23ff      	movs	r3, #255	@ 0xff
 80022de:	2240      	movs	r2, #64	@ 0x40
 80022e0:	213c      	movs	r1, #60	@ 0x3c
 80022e2:	4805      	ldr	r0, [pc, #20]	@ (80022f8 <Letra_O+0x5c>)
 80022e4:	f7ff f9f2 	bl	80016cc <I2C_Tx_2Bytes>
    I2C_Tx_2Bytes(I2C3, AdreSSD1306, ControlbD, 0x00);
 80022e8:	2300      	movs	r3, #0
 80022ea:	2240      	movs	r2, #64	@ 0x40
 80022ec:	213c      	movs	r1, #60	@ 0x3c
 80022ee:	4802      	ldr	r0, [pc, #8]	@ (80022f8 <Letra_O+0x5c>)
 80022f0:	f7ff f9ec 	bl	80016cc <I2C_Tx_2Bytes>
}
 80022f4:	bf00      	nop
 80022f6:	bd80      	pop	{r7, pc}
 80022f8:	40005c00 	.word	0x40005c00

080022fc <Letra_P>:
void Letra_P(void){
 80022fc:	b580      	push	{r7, lr}
 80022fe:	af00      	add	r7, sp, #0
    I2C_Tx_2Bytes(I2C3, AdreSSD1306, ControlbD, 0xFF);
 8002300:	23ff      	movs	r3, #255	@ 0xff
 8002302:	2240      	movs	r2, #64	@ 0x40
 8002304:	213c      	movs	r1, #60	@ 0x3c
 8002306:	4814      	ldr	r0, [pc, #80]	@ (8002358 <Letra_P+0x5c>)
 8002308:	f7ff f9e0 	bl	80016cc <I2C_Tx_2Bytes>
    I2C_Tx_2Bytes(I2C3, AdreSSD1306, ControlbD, 0xFF);
 800230c:	23ff      	movs	r3, #255	@ 0xff
 800230e:	2240      	movs	r2, #64	@ 0x40
 8002310:	213c      	movs	r1, #60	@ 0x3c
 8002312:	4811      	ldr	r0, [pc, #68]	@ (8002358 <Letra_P+0x5c>)
 8002314:	f7ff f9da 	bl	80016cc <I2C_Tx_2Bytes>
    I2C_Tx_2Bytes(I2C3, AdreSSD1306, ControlbD, 0x1B);
 8002318:	231b      	movs	r3, #27
 800231a:	2240      	movs	r2, #64	@ 0x40
 800231c:	213c      	movs	r1, #60	@ 0x3c
 800231e:	480e      	ldr	r0, [pc, #56]	@ (8002358 <Letra_P+0x5c>)
 8002320:	f7ff f9d4 	bl	80016cc <I2C_Tx_2Bytes>
    I2C_Tx_2Bytes(I2C3, AdreSSD1306, ControlbD, 0x1B);
 8002324:	231b      	movs	r3, #27
 8002326:	2240      	movs	r2, #64	@ 0x40
 8002328:	213c      	movs	r1, #60	@ 0x3c
 800232a:	480b      	ldr	r0, [pc, #44]	@ (8002358 <Letra_P+0x5c>)
 800232c:	f7ff f9ce 	bl	80016cc <I2C_Tx_2Bytes>
    I2C_Tx_2Bytes(I2C3, AdreSSD1306, ControlbD, 0x1F);
 8002330:	231f      	movs	r3, #31
 8002332:	2240      	movs	r2, #64	@ 0x40
 8002334:	213c      	movs	r1, #60	@ 0x3c
 8002336:	4808      	ldr	r0, [pc, #32]	@ (8002358 <Letra_P+0x5c>)
 8002338:	f7ff f9c8 	bl	80016cc <I2C_Tx_2Bytes>
    I2C_Tx_2Bytes(I2C3, AdreSSD1306, ControlbD, 0x1F);
 800233c:	231f      	movs	r3, #31
 800233e:	2240      	movs	r2, #64	@ 0x40
 8002340:	213c      	movs	r1, #60	@ 0x3c
 8002342:	4805      	ldr	r0, [pc, #20]	@ (8002358 <Letra_P+0x5c>)
 8002344:	f7ff f9c2 	bl	80016cc <I2C_Tx_2Bytes>
    I2C_Tx_2Bytes(I2C3, AdreSSD1306, ControlbD, 0x00);
 8002348:	2300      	movs	r3, #0
 800234a:	2240      	movs	r2, #64	@ 0x40
 800234c:	213c      	movs	r1, #60	@ 0x3c
 800234e:	4802      	ldr	r0, [pc, #8]	@ (8002358 <Letra_P+0x5c>)
 8002350:	f7ff f9bc 	bl	80016cc <I2C_Tx_2Bytes>

}
 8002354:	bf00      	nop
 8002356:	bd80      	pop	{r7, pc}
 8002358:	40005c00 	.word	0x40005c00

0800235c <Letra_Q>:
void Letra_Q(void){
 800235c:	b580      	push	{r7, lr}
 800235e:	af00      	add	r7, sp, #0
    I2C_Tx_2Bytes(I2C3, AdreSSD1306, ControlbD, 0x7F);
 8002360:	237f      	movs	r3, #127	@ 0x7f
 8002362:	2240      	movs	r2, #64	@ 0x40
 8002364:	213c      	movs	r1, #60	@ 0x3c
 8002366:	4814      	ldr	r0, [pc, #80]	@ (80023b8 <Letra_Q+0x5c>)
 8002368:	f7ff f9b0 	bl	80016cc <I2C_Tx_2Bytes>
    I2C_Tx_2Bytes(I2C3, AdreSSD1306, ControlbD, 0x7F);
 800236c:	237f      	movs	r3, #127	@ 0x7f
 800236e:	2240      	movs	r2, #64	@ 0x40
 8002370:	213c      	movs	r1, #60	@ 0x3c
 8002372:	4811      	ldr	r0, [pc, #68]	@ (80023b8 <Letra_Q+0x5c>)
 8002374:	f7ff f9aa 	bl	80016cc <I2C_Tx_2Bytes>
    I2C_Tx_2Bytes(I2C3, AdreSSD1306, ControlbD, 0x63);
 8002378:	2363      	movs	r3, #99	@ 0x63
 800237a:	2240      	movs	r2, #64	@ 0x40
 800237c:	213c      	movs	r1, #60	@ 0x3c
 800237e:	480e      	ldr	r0, [pc, #56]	@ (80023b8 <Letra_Q+0x5c>)
 8002380:	f7ff f9a4 	bl	80016cc <I2C_Tx_2Bytes>
    I2C_Tx_2Bytes(I2C3, AdreSSD1306, ControlbD, 0X63);
 8002384:	2363      	movs	r3, #99	@ 0x63
 8002386:	2240      	movs	r2, #64	@ 0x40
 8002388:	213c      	movs	r1, #60	@ 0x3c
 800238a:	480b      	ldr	r0, [pc, #44]	@ (80023b8 <Letra_Q+0x5c>)
 800238c:	f7ff f99e 	bl	80016cc <I2C_Tx_2Bytes>
    I2C_Tx_2Bytes(I2C3, AdreSSD1306, ControlbD, 0xFF);
 8002390:	23ff      	movs	r3, #255	@ 0xff
 8002392:	2240      	movs	r2, #64	@ 0x40
 8002394:	213c      	movs	r1, #60	@ 0x3c
 8002396:	4808      	ldr	r0, [pc, #32]	@ (80023b8 <Letra_Q+0x5c>)
 8002398:	f7ff f998 	bl	80016cc <I2C_Tx_2Bytes>
    I2C_Tx_2Bytes(I2C3, AdreSSD1306, ControlbD, 0xFF);
 800239c:	23ff      	movs	r3, #255	@ 0xff
 800239e:	2240      	movs	r2, #64	@ 0x40
 80023a0:	213c      	movs	r1, #60	@ 0x3c
 80023a2:	4805      	ldr	r0, [pc, #20]	@ (80023b8 <Letra_Q+0x5c>)
 80023a4:	f7ff f992 	bl	80016cc <I2C_Tx_2Bytes>
    I2C_Tx_2Bytes(I2C3, AdreSSD1306, ControlbD, 0x00);
 80023a8:	2300      	movs	r3, #0
 80023aa:	2240      	movs	r2, #64	@ 0x40
 80023ac:	213c      	movs	r1, #60	@ 0x3c
 80023ae:	4802      	ldr	r0, [pc, #8]	@ (80023b8 <Letra_Q+0x5c>)
 80023b0:	f7ff f98c 	bl	80016cc <I2C_Tx_2Bytes>

}
 80023b4:	bf00      	nop
 80023b6:	bd80      	pop	{r7, pc}
 80023b8:	40005c00 	.word	0x40005c00

080023bc <Letra_R>:
void Letra_R(void){
 80023bc:	b580      	push	{r7, lr}
 80023be:	af00      	add	r7, sp, #0

    I2C_Tx_2Bytes(I2C3, AdreSSD1306, ControlbD, 0xFF);
 80023c0:	23ff      	movs	r3, #255	@ 0xff
 80023c2:	2240      	movs	r2, #64	@ 0x40
 80023c4:	213c      	movs	r1, #60	@ 0x3c
 80023c6:	4814      	ldr	r0, [pc, #80]	@ (8002418 <Letra_R+0x5c>)
 80023c8:	f7ff f980 	bl	80016cc <I2C_Tx_2Bytes>
    I2C_Tx_2Bytes(I2C3, AdreSSD1306, ControlbD, 0xFF);
 80023cc:	23ff      	movs	r3, #255	@ 0xff
 80023ce:	2240      	movs	r2, #64	@ 0x40
 80023d0:	213c      	movs	r1, #60	@ 0x3c
 80023d2:	4811      	ldr	r0, [pc, #68]	@ (8002418 <Letra_R+0x5c>)
 80023d4:	f7ff f97a 	bl	80016cc <I2C_Tx_2Bytes>
    I2C_Tx_2Bytes(I2C3, AdreSSD1306, ControlbD, 0x1B);
 80023d8:	231b      	movs	r3, #27
 80023da:	2240      	movs	r2, #64	@ 0x40
 80023dc:	213c      	movs	r1, #60	@ 0x3c
 80023de:	480e      	ldr	r0, [pc, #56]	@ (8002418 <Letra_R+0x5c>)
 80023e0:	f7ff f974 	bl	80016cc <I2C_Tx_2Bytes>
    I2C_Tx_2Bytes(I2C3, AdreSSD1306, ControlbD, 0x7B);
 80023e4:	237b      	movs	r3, #123	@ 0x7b
 80023e6:	2240      	movs	r2, #64	@ 0x40
 80023e8:	213c      	movs	r1, #60	@ 0x3c
 80023ea:	480b      	ldr	r0, [pc, #44]	@ (8002418 <Letra_R+0x5c>)
 80023ec:	f7ff f96e 	bl	80016cc <I2C_Tx_2Bytes>
    I2C_Tx_2Bytes(I2C3, AdreSSD1306, ControlbD, 0x6F);
 80023f0:	236f      	movs	r3, #111	@ 0x6f
 80023f2:	2240      	movs	r2, #64	@ 0x40
 80023f4:	213c      	movs	r1, #60	@ 0x3c
 80023f6:	4808      	ldr	r0, [pc, #32]	@ (8002418 <Letra_R+0x5c>)
 80023f8:	f7ff f968 	bl	80016cc <I2C_Tx_2Bytes>
    I2C_Tx_2Bytes(I2C3, AdreSSD1306, ControlbD, 0xEF);
 80023fc:	23ef      	movs	r3, #239	@ 0xef
 80023fe:	2240      	movs	r2, #64	@ 0x40
 8002400:	213c      	movs	r1, #60	@ 0x3c
 8002402:	4805      	ldr	r0, [pc, #20]	@ (8002418 <Letra_R+0x5c>)
 8002404:	f7ff f962 	bl	80016cc <I2C_Tx_2Bytes>
    I2C_Tx_2Bytes(I2C3, AdreSSD1306, ControlbD, 0x00);
 8002408:	2300      	movs	r3, #0
 800240a:	2240      	movs	r2, #64	@ 0x40
 800240c:	213c      	movs	r1, #60	@ 0x3c
 800240e:	4802      	ldr	r0, [pc, #8]	@ (8002418 <Letra_R+0x5c>)
 8002410:	f7ff f95c 	bl	80016cc <I2C_Tx_2Bytes>

}
 8002414:	bf00      	nop
 8002416:	bd80      	pop	{r7, pc}
 8002418:	40005c00 	.word	0x40005c00

0800241c <Letra_S>:
void Letra_S(void){
 800241c:	b580      	push	{r7, lr}
 800241e:	af00      	add	r7, sp, #0
    I2C_Tx_2Bytes(I2C3, AdreSSD1306, ControlbD, 0xCF);
 8002420:	23cf      	movs	r3, #207	@ 0xcf
 8002422:	2240      	movs	r2, #64	@ 0x40
 8002424:	213c      	movs	r1, #60	@ 0x3c
 8002426:	4814      	ldr	r0, [pc, #80]	@ (8002478 <Letra_S+0x5c>)
 8002428:	f7ff f950 	bl	80016cc <I2C_Tx_2Bytes>
    I2C_Tx_2Bytes(I2C3, AdreSSD1306, ControlbD, 0xCF);
 800242c:	23cf      	movs	r3, #207	@ 0xcf
 800242e:	2240      	movs	r2, #64	@ 0x40
 8002430:	213c      	movs	r1, #60	@ 0x3c
 8002432:	4811      	ldr	r0, [pc, #68]	@ (8002478 <Letra_S+0x5c>)
 8002434:	f7ff f94a 	bl	80016cc <I2C_Tx_2Bytes>
    I2C_Tx_2Bytes(I2C3, AdreSSD1306, ControlbD, 0xDB);
 8002438:	23db      	movs	r3, #219	@ 0xdb
 800243a:	2240      	movs	r2, #64	@ 0x40
 800243c:	213c      	movs	r1, #60	@ 0x3c
 800243e:	480e      	ldr	r0, [pc, #56]	@ (8002478 <Letra_S+0x5c>)
 8002440:	f7ff f944 	bl	80016cc <I2C_Tx_2Bytes>
    I2C_Tx_2Bytes(I2C3, AdreSSD1306, ControlbD, 0xDB);
 8002444:	23db      	movs	r3, #219	@ 0xdb
 8002446:	2240      	movs	r2, #64	@ 0x40
 8002448:	213c      	movs	r1, #60	@ 0x3c
 800244a:	480b      	ldr	r0, [pc, #44]	@ (8002478 <Letra_S+0x5c>)
 800244c:	f7ff f93e 	bl	80016cc <I2C_Tx_2Bytes>
    I2C_Tx_2Bytes(I2C3, AdreSSD1306, ControlbD, 0xF3);
 8002450:	23f3      	movs	r3, #243	@ 0xf3
 8002452:	2240      	movs	r2, #64	@ 0x40
 8002454:	213c      	movs	r1, #60	@ 0x3c
 8002456:	4808      	ldr	r0, [pc, #32]	@ (8002478 <Letra_S+0x5c>)
 8002458:	f7ff f938 	bl	80016cc <I2C_Tx_2Bytes>
    I2C_Tx_2Bytes(I2C3, AdreSSD1306, ControlbD, 0xF3);
 800245c:	23f3      	movs	r3, #243	@ 0xf3
 800245e:	2240      	movs	r2, #64	@ 0x40
 8002460:	213c      	movs	r1, #60	@ 0x3c
 8002462:	4805      	ldr	r0, [pc, #20]	@ (8002478 <Letra_S+0x5c>)
 8002464:	f7ff f932 	bl	80016cc <I2C_Tx_2Bytes>
    I2C_Tx_2Bytes(I2C3, AdreSSD1306, ControlbD, 0x00);
 8002468:	2300      	movs	r3, #0
 800246a:	2240      	movs	r2, #64	@ 0x40
 800246c:	213c      	movs	r1, #60	@ 0x3c
 800246e:	4802      	ldr	r0, [pc, #8]	@ (8002478 <Letra_S+0x5c>)
 8002470:	f7ff f92c 	bl	80016cc <I2C_Tx_2Bytes>

}
 8002474:	bf00      	nop
 8002476:	bd80      	pop	{r7, pc}
 8002478:	40005c00 	.word	0x40005c00

0800247c <Letra_T>:
void Letra_T(void){
 800247c:	b580      	push	{r7, lr}
 800247e:	af00      	add	r7, sp, #0
    I2C_Tx_2Bytes(I2C3, AdreSSD1306, ControlbD, 0x03);
 8002480:	2303      	movs	r3, #3
 8002482:	2240      	movs	r2, #64	@ 0x40
 8002484:	213c      	movs	r1, #60	@ 0x3c
 8002486:	4814      	ldr	r0, [pc, #80]	@ (80024d8 <Letra_T+0x5c>)
 8002488:	f7ff f920 	bl	80016cc <I2C_Tx_2Bytes>
    I2C_Tx_2Bytes(I2C3, AdreSSD1306, ControlbD, 0x03);
 800248c:	2303      	movs	r3, #3
 800248e:	2240      	movs	r2, #64	@ 0x40
 8002490:	213c      	movs	r1, #60	@ 0x3c
 8002492:	4811      	ldr	r0, [pc, #68]	@ (80024d8 <Letra_T+0x5c>)
 8002494:	f7ff f91a 	bl	80016cc <I2C_Tx_2Bytes>
    I2C_Tx_2Bytes(I2C3, AdreSSD1306, ControlbD, 0xFF);
 8002498:	23ff      	movs	r3, #255	@ 0xff
 800249a:	2240      	movs	r2, #64	@ 0x40
 800249c:	213c      	movs	r1, #60	@ 0x3c
 800249e:	480e      	ldr	r0, [pc, #56]	@ (80024d8 <Letra_T+0x5c>)
 80024a0:	f7ff f914 	bl	80016cc <I2C_Tx_2Bytes>
    I2C_Tx_2Bytes(I2C3, AdreSSD1306, ControlbD, 0xFF);
 80024a4:	23ff      	movs	r3, #255	@ 0xff
 80024a6:	2240      	movs	r2, #64	@ 0x40
 80024a8:	213c      	movs	r1, #60	@ 0x3c
 80024aa:	480b      	ldr	r0, [pc, #44]	@ (80024d8 <Letra_T+0x5c>)
 80024ac:	f7ff f90e 	bl	80016cc <I2C_Tx_2Bytes>
    I2C_Tx_2Bytes(I2C3, AdreSSD1306, ControlbD, 0x03);
 80024b0:	2303      	movs	r3, #3
 80024b2:	2240      	movs	r2, #64	@ 0x40
 80024b4:	213c      	movs	r1, #60	@ 0x3c
 80024b6:	4808      	ldr	r0, [pc, #32]	@ (80024d8 <Letra_T+0x5c>)
 80024b8:	f7ff f908 	bl	80016cc <I2C_Tx_2Bytes>
    I2C_Tx_2Bytes(I2C3, AdreSSD1306, ControlbD, 0x03);
 80024bc:	2303      	movs	r3, #3
 80024be:	2240      	movs	r2, #64	@ 0x40
 80024c0:	213c      	movs	r1, #60	@ 0x3c
 80024c2:	4805      	ldr	r0, [pc, #20]	@ (80024d8 <Letra_T+0x5c>)
 80024c4:	f7ff f902 	bl	80016cc <I2C_Tx_2Bytes>
    I2C_Tx_2Bytes(I2C3, AdreSSD1306, ControlbD, 0x00);
 80024c8:	2300      	movs	r3, #0
 80024ca:	2240      	movs	r2, #64	@ 0x40
 80024cc:	213c      	movs	r1, #60	@ 0x3c
 80024ce:	4802      	ldr	r0, [pc, #8]	@ (80024d8 <Letra_T+0x5c>)
 80024d0:	f7ff f8fc 	bl	80016cc <I2C_Tx_2Bytes>
}
 80024d4:	bf00      	nop
 80024d6:	bd80      	pop	{r7, pc}
 80024d8:	40005c00 	.word	0x40005c00

080024dc <Letra_U>:
void Letra_U(void){
 80024dc:	b580      	push	{r7, lr}
 80024de:	af00      	add	r7, sp, #0
    I2C_Tx_2Bytes(I2C3, AdreSSD1306, ControlbD, 0xFF);
 80024e0:	23ff      	movs	r3, #255	@ 0xff
 80024e2:	2240      	movs	r2, #64	@ 0x40
 80024e4:	213c      	movs	r1, #60	@ 0x3c
 80024e6:	4814      	ldr	r0, [pc, #80]	@ (8002538 <Letra_U+0x5c>)
 80024e8:	f7ff f8f0 	bl	80016cc <I2C_Tx_2Bytes>
    I2C_Tx_2Bytes(I2C3, AdreSSD1306, ControlbD, 0xFF);
 80024ec:	23ff      	movs	r3, #255	@ 0xff
 80024ee:	2240      	movs	r2, #64	@ 0x40
 80024f0:	213c      	movs	r1, #60	@ 0x3c
 80024f2:	4811      	ldr	r0, [pc, #68]	@ (8002538 <Letra_U+0x5c>)
 80024f4:	f7ff f8ea 	bl	80016cc <I2C_Tx_2Bytes>
    I2C_Tx_2Bytes(I2C3, AdreSSD1306, ControlbD, 0xC0);
 80024f8:	23c0      	movs	r3, #192	@ 0xc0
 80024fa:	2240      	movs	r2, #64	@ 0x40
 80024fc:	213c      	movs	r1, #60	@ 0x3c
 80024fe:	480e      	ldr	r0, [pc, #56]	@ (8002538 <Letra_U+0x5c>)
 8002500:	f7ff f8e4 	bl	80016cc <I2C_Tx_2Bytes>
    I2C_Tx_2Bytes(I2C3, AdreSSD1306, ControlbD, 0xC0);
 8002504:	23c0      	movs	r3, #192	@ 0xc0
 8002506:	2240      	movs	r2, #64	@ 0x40
 8002508:	213c      	movs	r1, #60	@ 0x3c
 800250a:	480b      	ldr	r0, [pc, #44]	@ (8002538 <Letra_U+0x5c>)
 800250c:	f7ff f8de 	bl	80016cc <I2C_Tx_2Bytes>
    I2C_Tx_2Bytes(I2C3, AdreSSD1306, ControlbD, 0xFF);
 8002510:	23ff      	movs	r3, #255	@ 0xff
 8002512:	2240      	movs	r2, #64	@ 0x40
 8002514:	213c      	movs	r1, #60	@ 0x3c
 8002516:	4808      	ldr	r0, [pc, #32]	@ (8002538 <Letra_U+0x5c>)
 8002518:	f7ff f8d8 	bl	80016cc <I2C_Tx_2Bytes>
    I2C_Tx_2Bytes(I2C3, AdreSSD1306, ControlbD, 0xFF);
 800251c:	23ff      	movs	r3, #255	@ 0xff
 800251e:	2240      	movs	r2, #64	@ 0x40
 8002520:	213c      	movs	r1, #60	@ 0x3c
 8002522:	4805      	ldr	r0, [pc, #20]	@ (8002538 <Letra_U+0x5c>)
 8002524:	f7ff f8d2 	bl	80016cc <I2C_Tx_2Bytes>
    I2C_Tx_2Bytes(I2C3, AdreSSD1306, ControlbD, 0x00);
 8002528:	2300      	movs	r3, #0
 800252a:	2240      	movs	r2, #64	@ 0x40
 800252c:	213c      	movs	r1, #60	@ 0x3c
 800252e:	4802      	ldr	r0, [pc, #8]	@ (8002538 <Letra_U+0x5c>)
 8002530:	f7ff f8cc 	bl	80016cc <I2C_Tx_2Bytes>

}
 8002534:	bf00      	nop
 8002536:	bd80      	pop	{r7, pc}
 8002538:	40005c00 	.word	0x40005c00

0800253c <Letra_W>:
    I2C_Tx_2Bytes(I2C3, AdreSSD1306, ControlbD, 0x7F);
    I2C_Tx_2Bytes(I2C3, AdreSSD1306, ControlbD, 0x1F);
    I2C_Tx_2Bytes(I2C3, AdreSSD1306, ControlbD, 0x00);

}
void Letra_W(void){
 800253c:	b580      	push	{r7, lr}
 800253e:	af00      	add	r7, sp, #0

    I2C_Tx_2Bytes(I2C3, AdreSSD1306, ControlbD, 0xFF);
 8002540:	23ff      	movs	r3, #255	@ 0xff
 8002542:	2240      	movs	r2, #64	@ 0x40
 8002544:	213c      	movs	r1, #60	@ 0x3c
 8002546:	4817      	ldr	r0, [pc, #92]	@ (80025a4 <Letra_W+0x68>)
 8002548:	f7ff f8c0 	bl	80016cc <I2C_Tx_2Bytes>
    I2C_Tx_2Bytes(I2C3, AdreSSD1306, ControlbD, 0xFF);
 800254c:	23ff      	movs	r3, #255	@ 0xff
 800254e:	2240      	movs	r2, #64	@ 0x40
 8002550:	213c      	movs	r1, #60	@ 0x3c
 8002552:	4814      	ldr	r0, [pc, #80]	@ (80025a4 <Letra_W+0x68>)
 8002554:	f7ff f8ba 	bl	80016cc <I2C_Tx_2Bytes>
    I2C_Tx_2Bytes(I2C3, AdreSSD1306, ControlbD, 0x70);
 8002558:	2370      	movs	r3, #112	@ 0x70
 800255a:	2240      	movs	r2, #64	@ 0x40
 800255c:	213c      	movs	r1, #60	@ 0x3c
 800255e:	4811      	ldr	r0, [pc, #68]	@ (80025a4 <Letra_W+0x68>)
 8002560:	f7ff f8b4 	bl	80016cc <I2C_Tx_2Bytes>
    I2C_Tx_2Bytes(I2C3, AdreSSD1306, ControlbD, 0x38);
 8002564:	2338      	movs	r3, #56	@ 0x38
 8002566:	2240      	movs	r2, #64	@ 0x40
 8002568:	213c      	movs	r1, #60	@ 0x3c
 800256a:	480e      	ldr	r0, [pc, #56]	@ (80025a4 <Letra_W+0x68>)
 800256c:	f7ff f8ae 	bl	80016cc <I2C_Tx_2Bytes>
    I2C_Tx_2Bytes(I2C3, AdreSSD1306, ControlbD, 0x70);
 8002570:	2370      	movs	r3, #112	@ 0x70
 8002572:	2240      	movs	r2, #64	@ 0x40
 8002574:	213c      	movs	r1, #60	@ 0x3c
 8002576:	480b      	ldr	r0, [pc, #44]	@ (80025a4 <Letra_W+0x68>)
 8002578:	f7ff f8a8 	bl	80016cc <I2C_Tx_2Bytes>
    I2C_Tx_2Bytes(I2C3, AdreSSD1306, ControlbD, 0xFF);
 800257c:	23ff      	movs	r3, #255	@ 0xff
 800257e:	2240      	movs	r2, #64	@ 0x40
 8002580:	213c      	movs	r1, #60	@ 0x3c
 8002582:	4808      	ldr	r0, [pc, #32]	@ (80025a4 <Letra_W+0x68>)
 8002584:	f7ff f8a2 	bl	80016cc <I2C_Tx_2Bytes>
    I2C_Tx_2Bytes(I2C3, AdreSSD1306, ControlbD, 0xFF);
 8002588:	23ff      	movs	r3, #255	@ 0xff
 800258a:	2240      	movs	r2, #64	@ 0x40
 800258c:	213c      	movs	r1, #60	@ 0x3c
 800258e:	4805      	ldr	r0, [pc, #20]	@ (80025a4 <Letra_W+0x68>)
 8002590:	f7ff f89c 	bl	80016cc <I2C_Tx_2Bytes>
    I2C_Tx_2Bytes(I2C3, AdreSSD1306, ControlbD, 0x00);
 8002594:	2300      	movs	r3, #0
 8002596:	2240      	movs	r2, #64	@ 0x40
 8002598:	213c      	movs	r1, #60	@ 0x3c
 800259a:	4802      	ldr	r0, [pc, #8]	@ (80025a4 <Letra_W+0x68>)
 800259c:	f7ff f896 	bl	80016cc <I2C_Tx_2Bytes>

}
 80025a0:	bf00      	nop
 80025a2:	bd80      	pop	{r7, pc}
 80025a4:	40005c00 	.word	0x40005c00

080025a8 <Letra_X>:
void Letra_X(void){
 80025a8:	b580      	push	{r7, lr}
 80025aa:	af00      	add	r7, sp, #0
    I2C_Tx_2Bytes(I2C3, AdreSSD1306, ControlbD, 0xC3);
 80025ac:	23c3      	movs	r3, #195	@ 0xc3
 80025ae:	2240      	movs	r2, #64	@ 0x40
 80025b0:	213c      	movs	r1, #60	@ 0x3c
 80025b2:	4814      	ldr	r0, [pc, #80]	@ (8002604 <Letra_X+0x5c>)
 80025b4:	f7ff f88a 	bl	80016cc <I2C_Tx_2Bytes>
    I2C_Tx_2Bytes(I2C3, AdreSSD1306, ControlbD, 0xE7);
 80025b8:	23e7      	movs	r3, #231	@ 0xe7
 80025ba:	2240      	movs	r2, #64	@ 0x40
 80025bc:	213c      	movs	r1, #60	@ 0x3c
 80025be:	4811      	ldr	r0, [pc, #68]	@ (8002604 <Letra_X+0x5c>)
 80025c0:	f7ff f884 	bl	80016cc <I2C_Tx_2Bytes>
    I2C_Tx_2Bytes(I2C3, AdreSSD1306, ControlbD, 0x3C);
 80025c4:	233c      	movs	r3, #60	@ 0x3c
 80025c6:	2240      	movs	r2, #64	@ 0x40
 80025c8:	213c      	movs	r1, #60	@ 0x3c
 80025ca:	480e      	ldr	r0, [pc, #56]	@ (8002604 <Letra_X+0x5c>)
 80025cc:	f7ff f87e 	bl	80016cc <I2C_Tx_2Bytes>
    I2C_Tx_2Bytes(I2C3, AdreSSD1306, ControlbD, 0x3C);
 80025d0:	233c      	movs	r3, #60	@ 0x3c
 80025d2:	2240      	movs	r2, #64	@ 0x40
 80025d4:	213c      	movs	r1, #60	@ 0x3c
 80025d6:	480b      	ldr	r0, [pc, #44]	@ (8002604 <Letra_X+0x5c>)
 80025d8:	f7ff f878 	bl	80016cc <I2C_Tx_2Bytes>
    I2C_Tx_2Bytes(I2C3, AdreSSD1306, ControlbD, 0xE7);
 80025dc:	23e7      	movs	r3, #231	@ 0xe7
 80025de:	2240      	movs	r2, #64	@ 0x40
 80025e0:	213c      	movs	r1, #60	@ 0x3c
 80025e2:	4808      	ldr	r0, [pc, #32]	@ (8002604 <Letra_X+0x5c>)
 80025e4:	f7ff f872 	bl	80016cc <I2C_Tx_2Bytes>
    I2C_Tx_2Bytes(I2C3, AdreSSD1306, ControlbD, 0xC3);
 80025e8:	23c3      	movs	r3, #195	@ 0xc3
 80025ea:	2240      	movs	r2, #64	@ 0x40
 80025ec:	213c      	movs	r1, #60	@ 0x3c
 80025ee:	4805      	ldr	r0, [pc, #20]	@ (8002604 <Letra_X+0x5c>)
 80025f0:	f7ff f86c 	bl	80016cc <I2C_Tx_2Bytes>
    I2C_Tx_2Bytes(I2C3, AdreSSD1306, ControlbD, 0x00);
 80025f4:	2300      	movs	r3, #0
 80025f6:	2240      	movs	r2, #64	@ 0x40
 80025f8:	213c      	movs	r1, #60	@ 0x3c
 80025fa:	4802      	ldr	r0, [pc, #8]	@ (8002604 <Letra_X+0x5c>)
 80025fc:	f7ff f866 	bl	80016cc <I2C_Tx_2Bytes>
}
 8002600:	bf00      	nop
 8002602:	bd80      	pop	{r7, pc}
 8002604:	40005c00 	.word	0x40005c00

08002608 <Letra_Y>:
void Letra_Y(void){
 8002608:	b580      	push	{r7, lr}
 800260a:	af00      	add	r7, sp, #0
    I2C_Tx_2Bytes(I2C3, AdreSSD1306, ControlbD, 0x03);
 800260c:	2303      	movs	r3, #3
 800260e:	2240      	movs	r2, #64	@ 0x40
 8002610:	213c      	movs	r1, #60	@ 0x3c
 8002612:	4814      	ldr	r0, [pc, #80]	@ (8002664 <Letra_Y+0x5c>)
 8002614:	f7ff f85a 	bl	80016cc <I2C_Tx_2Bytes>
    I2C_Tx_2Bytes(I2C3, AdreSSD1306, ControlbD, 0x0F);
 8002618:	230f      	movs	r3, #15
 800261a:	2240      	movs	r2, #64	@ 0x40
 800261c:	213c      	movs	r1, #60	@ 0x3c
 800261e:	4811      	ldr	r0, [pc, #68]	@ (8002664 <Letra_Y+0x5c>)
 8002620:	f7ff f854 	bl	80016cc <I2C_Tx_2Bytes>
    I2C_Tx_2Bytes(I2C3, AdreSSD1306, ControlbD, 0xFC);
 8002624:	23fc      	movs	r3, #252	@ 0xfc
 8002626:	2240      	movs	r2, #64	@ 0x40
 8002628:	213c      	movs	r1, #60	@ 0x3c
 800262a:	480e      	ldr	r0, [pc, #56]	@ (8002664 <Letra_Y+0x5c>)
 800262c:	f7ff f84e 	bl	80016cc <I2C_Tx_2Bytes>
    I2C_Tx_2Bytes(I2C3, AdreSSD1306, ControlbD, 0xFC);
 8002630:	23fc      	movs	r3, #252	@ 0xfc
 8002632:	2240      	movs	r2, #64	@ 0x40
 8002634:	213c      	movs	r1, #60	@ 0x3c
 8002636:	480b      	ldr	r0, [pc, #44]	@ (8002664 <Letra_Y+0x5c>)
 8002638:	f7ff f848 	bl	80016cc <I2C_Tx_2Bytes>
    I2C_Tx_2Bytes(I2C3, AdreSSD1306, ControlbD, 0x0F);
 800263c:	230f      	movs	r3, #15
 800263e:	2240      	movs	r2, #64	@ 0x40
 8002640:	213c      	movs	r1, #60	@ 0x3c
 8002642:	4808      	ldr	r0, [pc, #32]	@ (8002664 <Letra_Y+0x5c>)
 8002644:	f7ff f842 	bl	80016cc <I2C_Tx_2Bytes>
    I2C_Tx_2Bytes(I2C3, AdreSSD1306, ControlbD, 0x03);
 8002648:	2303      	movs	r3, #3
 800264a:	2240      	movs	r2, #64	@ 0x40
 800264c:	213c      	movs	r1, #60	@ 0x3c
 800264e:	4805      	ldr	r0, [pc, #20]	@ (8002664 <Letra_Y+0x5c>)
 8002650:	f7ff f83c 	bl	80016cc <I2C_Tx_2Bytes>
    I2C_Tx_2Bytes(I2C3, AdreSSD1306, ControlbD, 0x00);
 8002654:	2300      	movs	r3, #0
 8002656:	2240      	movs	r2, #64	@ 0x40
 8002658:	213c      	movs	r1, #60	@ 0x3c
 800265a:	4802      	ldr	r0, [pc, #8]	@ (8002664 <Letra_Y+0x5c>)
 800265c:	f7ff f836 	bl	80016cc <I2C_Tx_2Bytes>

}
 8002660:	bf00      	nop
 8002662:	bd80      	pop	{r7, pc}
 8002664:	40005c00 	.word	0x40005c00

08002668 <Letra_Z>:

void Letra_Z(void){
 8002668:	b580      	push	{r7, lr}
 800266a:	af00      	add	r7, sp, #0
    I2C_Tx_2Bytes(I2C3, AdreSSD1306, ControlbD, 0xC3);
 800266c:	23c3      	movs	r3, #195	@ 0xc3
 800266e:	2240      	movs	r2, #64	@ 0x40
 8002670:	213c      	movs	r1, #60	@ 0x3c
 8002672:	4814      	ldr	r0, [pc, #80]	@ (80026c4 <Letra_Z+0x5c>)
 8002674:	f7ff f82a 	bl	80016cc <I2C_Tx_2Bytes>
    I2C_Tx_2Bytes(I2C3, AdreSSD1306, ControlbD, 0xE3);
 8002678:	23e3      	movs	r3, #227	@ 0xe3
 800267a:	2240      	movs	r2, #64	@ 0x40
 800267c:	213c      	movs	r1, #60	@ 0x3c
 800267e:	4811      	ldr	r0, [pc, #68]	@ (80026c4 <Letra_Z+0x5c>)
 8002680:	f7ff f824 	bl	80016cc <I2C_Tx_2Bytes>
    I2C_Tx_2Bytes(I2C3, AdreSSD1306, ControlbD, 0xFB);
 8002684:	23fb      	movs	r3, #251	@ 0xfb
 8002686:	2240      	movs	r2, #64	@ 0x40
 8002688:	213c      	movs	r1, #60	@ 0x3c
 800268a:	480e      	ldr	r0, [pc, #56]	@ (80026c4 <Letra_Z+0x5c>)
 800268c:	f7ff f81e 	bl	80016cc <I2C_Tx_2Bytes>
    I2C_Tx_2Bytes(I2C3, AdreSSD1306, ControlbD, 0xD7);
 8002690:	23d7      	movs	r3, #215	@ 0xd7
 8002692:	2240      	movs	r2, #64	@ 0x40
 8002694:	213c      	movs	r1, #60	@ 0x3c
 8002696:	480b      	ldr	r0, [pc, #44]	@ (80026c4 <Letra_Z+0x5c>)
 8002698:	f7ff f818 	bl	80016cc <I2C_Tx_2Bytes>
    I2C_Tx_2Bytes(I2C3, AdreSSD1306, ControlbD, 0xC7);
 800269c:	23c7      	movs	r3, #199	@ 0xc7
 800269e:	2240      	movs	r2, #64	@ 0x40
 80026a0:	213c      	movs	r1, #60	@ 0x3c
 80026a2:	4808      	ldr	r0, [pc, #32]	@ (80026c4 <Letra_Z+0x5c>)
 80026a4:	f7ff f812 	bl	80016cc <I2C_Tx_2Bytes>
    I2C_Tx_2Bytes(I2C3, AdreSSD1306, ControlbD, 0xC3);
 80026a8:	23c3      	movs	r3, #195	@ 0xc3
 80026aa:	2240      	movs	r2, #64	@ 0x40
 80026ac:	213c      	movs	r1, #60	@ 0x3c
 80026ae:	4805      	ldr	r0, [pc, #20]	@ (80026c4 <Letra_Z+0x5c>)
 80026b0:	f7ff f80c 	bl	80016cc <I2C_Tx_2Bytes>
    I2C_Tx_2Bytes(I2C3, AdreSSD1306, ControlbD, 0x00);
 80026b4:	2300      	movs	r3, #0
 80026b6:	2240      	movs	r2, #64	@ 0x40
 80026b8:	213c      	movs	r1, #60	@ 0x3c
 80026ba:	4802      	ldr	r0, [pc, #8]	@ (80026c4 <Letra_Z+0x5c>)
 80026bc:	f7ff f806 	bl	80016cc <I2C_Tx_2Bytes>
}
 80026c0:	bf00      	nop
 80026c2:	bd80      	pop	{r7, pc}
 80026c4:	40005c00 	.word	0x40005c00

080026c8 <Espacio>:

void Espacio (void){
 80026c8:	b580      	push	{r7, lr}
 80026ca:	af00      	add	r7, sp, #0
    I2C_Tx_2Bytes(I2C3, AdreSSD1306, ControlbD, 0x00);
 80026cc:	2300      	movs	r3, #0
 80026ce:	2240      	movs	r2, #64	@ 0x40
 80026d0:	213c      	movs	r1, #60	@ 0x3c
 80026d2:	480b      	ldr	r0, [pc, #44]	@ (8002700 <Espacio+0x38>)
 80026d4:	f7fe fffa 	bl	80016cc <I2C_Tx_2Bytes>
    I2C_Tx_2Bytes(I2C3, AdreSSD1306, ControlbD, 0x00);
 80026d8:	2300      	movs	r3, #0
 80026da:	2240      	movs	r2, #64	@ 0x40
 80026dc:	213c      	movs	r1, #60	@ 0x3c
 80026de:	4808      	ldr	r0, [pc, #32]	@ (8002700 <Espacio+0x38>)
 80026e0:	f7fe fff4 	bl	80016cc <I2C_Tx_2Bytes>
    I2C_Tx_2Bytes(I2C3, AdreSSD1306, ControlbD, 0x00);
 80026e4:	2300      	movs	r3, #0
 80026e6:	2240      	movs	r2, #64	@ 0x40
 80026e8:	213c      	movs	r1, #60	@ 0x3c
 80026ea:	4805      	ldr	r0, [pc, #20]	@ (8002700 <Espacio+0x38>)
 80026ec:	f7fe ffee 	bl	80016cc <I2C_Tx_2Bytes>
    I2C_Tx_2Bytes(I2C3, AdreSSD1306, ControlbD, 0x00);
 80026f0:	2300      	movs	r3, #0
 80026f2:	2240      	movs	r2, #64	@ 0x40
 80026f4:	213c      	movs	r1, #60	@ 0x3c
 80026f6:	4802      	ldr	r0, [pc, #8]	@ (8002700 <Espacio+0x38>)
 80026f8:	f7fe ffe8 	bl	80016cc <I2C_Tx_2Bytes>
}
 80026fc:	bf00      	nop
 80026fe:	bd80      	pop	{r7, pc}
 8002700:	40005c00 	.word	0x40005c00

08002704 <Admiracion>:

void Admiracion(void){
 8002704:	b580      	push	{r7, lr}
 8002706:	af00      	add	r7, sp, #0
I2C_Tx_2Bytes(I2C3, AdreSSD1306, ControlbD, 0xFB);
 8002708:	23fb      	movs	r3, #251	@ 0xfb
 800270a:	2240      	movs	r2, #64	@ 0x40
 800270c:	213c      	movs	r1, #60	@ 0x3c
 800270e:	480e      	ldr	r0, [pc, #56]	@ (8002748 <Admiracion+0x44>)
 8002710:	f7fe ffdc 	bl	80016cc <I2C_Tx_2Bytes>
I2C_Tx_2Bytes(I2C3, AdreSSD1306, ControlbD, 0xFB);
 8002714:	23fb      	movs	r3, #251	@ 0xfb
 8002716:	2240      	movs	r2, #64	@ 0x40
 8002718:	213c      	movs	r1, #60	@ 0x3c
 800271a:	480b      	ldr	r0, [pc, #44]	@ (8002748 <Admiracion+0x44>)
 800271c:	f7fe ffd6 	bl	80016cc <I2C_Tx_2Bytes>
I2C_Tx_2Bytes(I2C3, AdreSSD1306, ControlbD, 0xFB);
 8002720:	23fb      	movs	r3, #251	@ 0xfb
 8002722:	2240      	movs	r2, #64	@ 0x40
 8002724:	213c      	movs	r1, #60	@ 0x3c
 8002726:	4808      	ldr	r0, [pc, #32]	@ (8002748 <Admiracion+0x44>)
 8002728:	f7fe ffd0 	bl	80016cc <I2C_Tx_2Bytes>
I2C_Tx_2Bytes(I2C3, AdreSSD1306, ControlbD, 0x00);
 800272c:	2300      	movs	r3, #0
 800272e:	2240      	movs	r2, #64	@ 0x40
 8002730:	213c      	movs	r1, #60	@ 0x3c
 8002732:	4805      	ldr	r0, [pc, #20]	@ (8002748 <Admiracion+0x44>)
 8002734:	f7fe ffca 	bl	80016cc <I2C_Tx_2Bytes>
I2C_Tx_2Bytes(I2C3, AdreSSD1306, ControlbD, 0x00);
 8002738:	2300      	movs	r3, #0
 800273a:	2240      	movs	r2, #64	@ 0x40
 800273c:	213c      	movs	r1, #60	@ 0x3c
 800273e:	4802      	ldr	r0, [pc, #8]	@ (8002748 <Admiracion+0x44>)
 8002740:	f7fe ffc4 	bl	80016cc <I2C_Tx_2Bytes>
}
 8002744:	bf00      	nop
 8002746:	bd80      	pop	{r7, pc}
 8002748:	40005c00 	.word	0x40005c00

0800274c <Numero_1>:


/*Declaracion de numeros decimales pantalla oled*/

void Numero_1(void){
 800274c:	b580      	push	{r7, lr}
 800274e:	af00      	add	r7, sp, #0
I2C_Tx_2Bytes(I2C3, AdreSSD1306, ControlbD, 0x01);
 8002750:	2301      	movs	r3, #1
 8002752:	2240      	movs	r2, #64	@ 0x40
 8002754:	213c      	movs	r1, #60	@ 0x3c
 8002756:	480e      	ldr	r0, [pc, #56]	@ (8002790 <Numero_1+0x44>)
 8002758:	f7fe ffb8 	bl	80016cc <I2C_Tx_2Bytes>
I2C_Tx_2Bytes(I2C3, AdreSSD1306, ControlbD, 0x01);
 800275c:	2301      	movs	r3, #1
 800275e:	2240      	movs	r2, #64	@ 0x40
 8002760:	213c      	movs	r1, #60	@ 0x3c
 8002762:	480b      	ldr	r0, [pc, #44]	@ (8002790 <Numero_1+0x44>)
 8002764:	f7fe ffb2 	bl	80016cc <I2C_Tx_2Bytes>
I2C_Tx_2Bytes(I2C3, AdreSSD1306, ControlbD, 0xFF);
 8002768:	23ff      	movs	r3, #255	@ 0xff
 800276a:	2240      	movs	r2, #64	@ 0x40
 800276c:	213c      	movs	r1, #60	@ 0x3c
 800276e:	4808      	ldr	r0, [pc, #32]	@ (8002790 <Numero_1+0x44>)
 8002770:	f7fe ffac 	bl	80016cc <I2C_Tx_2Bytes>
I2C_Tx_2Bytes(I2C3, AdreSSD1306, ControlbD, 0xFF);
 8002774:	23ff      	movs	r3, #255	@ 0xff
 8002776:	2240      	movs	r2, #64	@ 0x40
 8002778:	213c      	movs	r1, #60	@ 0x3c
 800277a:	4805      	ldr	r0, [pc, #20]	@ (8002790 <Numero_1+0x44>)
 800277c:	f7fe ffa6 	bl	80016cc <I2C_Tx_2Bytes>
I2C_Tx_2Bytes(I2C3, AdreSSD1306, ControlbD, 0x00);
 8002780:	2300      	movs	r3, #0
 8002782:	2240      	movs	r2, #64	@ 0x40
 8002784:	213c      	movs	r1, #60	@ 0x3c
 8002786:	4802      	ldr	r0, [pc, #8]	@ (8002790 <Numero_1+0x44>)
 8002788:	f7fe ffa0 	bl	80016cc <I2C_Tx_2Bytes>
}
 800278c:	bf00      	nop
 800278e:	bd80      	pop	{r7, pc}
 8002790:	40005c00 	.word	0x40005c00

08002794 <Numero_2>:


void Numero_2(void){
 8002794:	b580      	push	{r7, lr}
 8002796:	af00      	add	r7, sp, #0
I2C_Tx_2Bytes(I2C3, AdreSSD1306, ControlbD, 0xFB);
 8002798:	23fb      	movs	r3, #251	@ 0xfb
 800279a:	2240      	movs	r2, #64	@ 0x40
 800279c:	213c      	movs	r1, #60	@ 0x3c
 800279e:	4814      	ldr	r0, [pc, #80]	@ (80027f0 <Numero_2+0x5c>)
 80027a0:	f7fe ff94 	bl	80016cc <I2C_Tx_2Bytes>
I2C_Tx_2Bytes(I2C3, AdreSSD1306, ControlbD, 0xFB);
 80027a4:	23fb      	movs	r3, #251	@ 0xfb
 80027a6:	2240      	movs	r2, #64	@ 0x40
 80027a8:	213c      	movs	r1, #60	@ 0x3c
 80027aa:	4811      	ldr	r0, [pc, #68]	@ (80027f0 <Numero_2+0x5c>)
 80027ac:	f7fe ff8e 	bl	80016cc <I2C_Tx_2Bytes>
I2C_Tx_2Bytes(I2C3, AdreSSD1306, ControlbD, 0xDB);
 80027b0:	23db      	movs	r3, #219	@ 0xdb
 80027b2:	2240      	movs	r2, #64	@ 0x40
 80027b4:	213c      	movs	r1, #60	@ 0x3c
 80027b6:	480e      	ldr	r0, [pc, #56]	@ (80027f0 <Numero_2+0x5c>)
 80027b8:	f7fe ff88 	bl	80016cc <I2C_Tx_2Bytes>
I2C_Tx_2Bytes(I2C3, AdreSSD1306, ControlbD, 0xDB);
 80027bc:	23db      	movs	r3, #219	@ 0xdb
 80027be:	2240      	movs	r2, #64	@ 0x40
 80027c0:	213c      	movs	r1, #60	@ 0x3c
 80027c2:	480b      	ldr	r0, [pc, #44]	@ (80027f0 <Numero_2+0x5c>)
 80027c4:	f7fe ff82 	bl	80016cc <I2C_Tx_2Bytes>
I2C_Tx_2Bytes(I2C3, AdreSSD1306, ControlbD, 0xDF);
 80027c8:	23df      	movs	r3, #223	@ 0xdf
 80027ca:	2240      	movs	r2, #64	@ 0x40
 80027cc:	213c      	movs	r1, #60	@ 0x3c
 80027ce:	4808      	ldr	r0, [pc, #32]	@ (80027f0 <Numero_2+0x5c>)
 80027d0:	f7fe ff7c 	bl	80016cc <I2C_Tx_2Bytes>
I2C_Tx_2Bytes(I2C3, AdreSSD1306, ControlbD, 0xDF);
 80027d4:	23df      	movs	r3, #223	@ 0xdf
 80027d6:	2240      	movs	r2, #64	@ 0x40
 80027d8:	213c      	movs	r1, #60	@ 0x3c
 80027da:	4805      	ldr	r0, [pc, #20]	@ (80027f0 <Numero_2+0x5c>)
 80027dc:	f7fe ff76 	bl	80016cc <I2C_Tx_2Bytes>
I2C_Tx_2Bytes(I2C3, AdreSSD1306, ControlbD, 0x00);
 80027e0:	2300      	movs	r3, #0
 80027e2:	2240      	movs	r2, #64	@ 0x40
 80027e4:	213c      	movs	r1, #60	@ 0x3c
 80027e6:	4802      	ldr	r0, [pc, #8]	@ (80027f0 <Numero_2+0x5c>)
 80027e8:	f7fe ff70 	bl	80016cc <I2C_Tx_2Bytes>
}
 80027ec:	bf00      	nop
 80027ee:	bd80      	pop	{r7, pc}
 80027f0:	40005c00 	.word	0x40005c00

080027f4 <Numero_3>:

void Numero_3(void){
 80027f4:	b580      	push	{r7, lr}
 80027f6:	af00      	add	r7, sp, #0
I2C_Tx_2Bytes(I2C3, AdreSSD1306, ControlbD, 0xDB);
 80027f8:	23db      	movs	r3, #219	@ 0xdb
 80027fa:	2240      	movs	r2, #64	@ 0x40
 80027fc:	213c      	movs	r1, #60	@ 0x3c
 80027fe:	4814      	ldr	r0, [pc, #80]	@ (8002850 <Numero_3+0x5c>)
 8002800:	f7fe ff64 	bl	80016cc <I2C_Tx_2Bytes>
I2C_Tx_2Bytes(I2C3, AdreSSD1306, ControlbD, 0xDB);
 8002804:	23db      	movs	r3, #219	@ 0xdb
 8002806:	2240      	movs	r2, #64	@ 0x40
 8002808:	213c      	movs	r1, #60	@ 0x3c
 800280a:	4811      	ldr	r0, [pc, #68]	@ (8002850 <Numero_3+0x5c>)
 800280c:	f7fe ff5e 	bl	80016cc <I2C_Tx_2Bytes>
I2C_Tx_2Bytes(I2C3, AdreSSD1306, ControlbD, 0xDB);
 8002810:	23db      	movs	r3, #219	@ 0xdb
 8002812:	2240      	movs	r2, #64	@ 0x40
 8002814:	213c      	movs	r1, #60	@ 0x3c
 8002816:	480e      	ldr	r0, [pc, #56]	@ (8002850 <Numero_3+0x5c>)
 8002818:	f7fe ff58 	bl	80016cc <I2C_Tx_2Bytes>
I2C_Tx_2Bytes(I2C3, AdreSSD1306, ControlbD, 0xDB);
 800281c:	23db      	movs	r3, #219	@ 0xdb
 800281e:	2240      	movs	r2, #64	@ 0x40
 8002820:	213c      	movs	r1, #60	@ 0x3c
 8002822:	480b      	ldr	r0, [pc, #44]	@ (8002850 <Numero_3+0x5c>)
 8002824:	f7fe ff52 	bl	80016cc <I2C_Tx_2Bytes>
I2C_Tx_2Bytes(I2C3, AdreSSD1306, ControlbD, 0xFF);
 8002828:	23ff      	movs	r3, #255	@ 0xff
 800282a:	2240      	movs	r2, #64	@ 0x40
 800282c:	213c      	movs	r1, #60	@ 0x3c
 800282e:	4808      	ldr	r0, [pc, #32]	@ (8002850 <Numero_3+0x5c>)
 8002830:	f7fe ff4c 	bl	80016cc <I2C_Tx_2Bytes>
I2C_Tx_2Bytes(I2C3, AdreSSD1306, ControlbD, 0xFF);
 8002834:	23ff      	movs	r3, #255	@ 0xff
 8002836:	2240      	movs	r2, #64	@ 0x40
 8002838:	213c      	movs	r1, #60	@ 0x3c
 800283a:	4805      	ldr	r0, [pc, #20]	@ (8002850 <Numero_3+0x5c>)
 800283c:	f7fe ff46 	bl	80016cc <I2C_Tx_2Bytes>
I2C_Tx_2Bytes(I2C3, AdreSSD1306, ControlbD, 0x00);
 8002840:	2300      	movs	r3, #0
 8002842:	2240      	movs	r2, #64	@ 0x40
 8002844:	213c      	movs	r1, #60	@ 0x3c
 8002846:	4802      	ldr	r0, [pc, #8]	@ (8002850 <Numero_3+0x5c>)
 8002848:	f7fe ff40 	bl	80016cc <I2C_Tx_2Bytes>
}
 800284c:	bf00      	nop
 800284e:	bd80      	pop	{r7, pc}
 8002850:	40005c00 	.word	0x40005c00

08002854 <Numero_4>:

void Numero_4(void){
 8002854:	b580      	push	{r7, lr}
 8002856:	af00      	add	r7, sp, #0
I2C_Tx_2Bytes(I2C3, AdreSSD1306, ControlbD, 0x1F);
 8002858:	231f      	movs	r3, #31
 800285a:	2240      	movs	r2, #64	@ 0x40
 800285c:	213c      	movs	r1, #60	@ 0x3c
 800285e:	4814      	ldr	r0, [pc, #80]	@ (80028b0 <Numero_4+0x5c>)
 8002860:	f7fe ff34 	bl	80016cc <I2C_Tx_2Bytes>
I2C_Tx_2Bytes(I2C3, AdreSSD1306, ControlbD, 0x1F);
 8002864:	231f      	movs	r3, #31
 8002866:	2240      	movs	r2, #64	@ 0x40
 8002868:	213c      	movs	r1, #60	@ 0x3c
 800286a:	4811      	ldr	r0, [pc, #68]	@ (80028b0 <Numero_4+0x5c>)
 800286c:	f7fe ff2e 	bl	80016cc <I2C_Tx_2Bytes>
I2C_Tx_2Bytes(I2C3, AdreSSD1306, ControlbD, 0x18);
 8002870:	2318      	movs	r3, #24
 8002872:	2240      	movs	r2, #64	@ 0x40
 8002874:	213c      	movs	r1, #60	@ 0x3c
 8002876:	480e      	ldr	r0, [pc, #56]	@ (80028b0 <Numero_4+0x5c>)
 8002878:	f7fe ff28 	bl	80016cc <I2C_Tx_2Bytes>
I2C_Tx_2Bytes(I2C3, AdreSSD1306, ControlbD, 0x18);
 800287c:	2318      	movs	r3, #24
 800287e:	2240      	movs	r2, #64	@ 0x40
 8002880:	213c      	movs	r1, #60	@ 0x3c
 8002882:	480b      	ldr	r0, [pc, #44]	@ (80028b0 <Numero_4+0x5c>)
 8002884:	f7fe ff22 	bl	80016cc <I2C_Tx_2Bytes>
I2C_Tx_2Bytes(I2C3, AdreSSD1306, ControlbD, 0xFF);
 8002888:	23ff      	movs	r3, #255	@ 0xff
 800288a:	2240      	movs	r2, #64	@ 0x40
 800288c:	213c      	movs	r1, #60	@ 0x3c
 800288e:	4808      	ldr	r0, [pc, #32]	@ (80028b0 <Numero_4+0x5c>)
 8002890:	f7fe ff1c 	bl	80016cc <I2C_Tx_2Bytes>
I2C_Tx_2Bytes(I2C3, AdreSSD1306, ControlbD, 0xFF);
 8002894:	23ff      	movs	r3, #255	@ 0xff
 8002896:	2240      	movs	r2, #64	@ 0x40
 8002898:	213c      	movs	r1, #60	@ 0x3c
 800289a:	4805      	ldr	r0, [pc, #20]	@ (80028b0 <Numero_4+0x5c>)
 800289c:	f7fe ff16 	bl	80016cc <I2C_Tx_2Bytes>
I2C_Tx_2Bytes(I2C3, AdreSSD1306, ControlbD, 0x00);
 80028a0:	2300      	movs	r3, #0
 80028a2:	2240      	movs	r2, #64	@ 0x40
 80028a4:	213c      	movs	r1, #60	@ 0x3c
 80028a6:	4802      	ldr	r0, [pc, #8]	@ (80028b0 <Numero_4+0x5c>)
 80028a8:	f7fe ff10 	bl	80016cc <I2C_Tx_2Bytes>
}
 80028ac:	bf00      	nop
 80028ae:	bd80      	pop	{r7, pc}
 80028b0:	40005c00 	.word	0x40005c00

080028b4 <Numero_5>:

void Numero_5(void){
 80028b4:	b580      	push	{r7, lr}
 80028b6:	af00      	add	r7, sp, #0
I2C_Tx_2Bytes(I2C3, AdreSSD1306, ControlbD, 0xDF);
 80028b8:	23df      	movs	r3, #223	@ 0xdf
 80028ba:	2240      	movs	r2, #64	@ 0x40
 80028bc:	213c      	movs	r1, #60	@ 0x3c
 80028be:	4814      	ldr	r0, [pc, #80]	@ (8002910 <Numero_5+0x5c>)
 80028c0:	f7fe ff04 	bl	80016cc <I2C_Tx_2Bytes>
I2C_Tx_2Bytes(I2C3, AdreSSD1306, ControlbD, 0xDF);
 80028c4:	23df      	movs	r3, #223	@ 0xdf
 80028c6:	2240      	movs	r2, #64	@ 0x40
 80028c8:	213c      	movs	r1, #60	@ 0x3c
 80028ca:	4811      	ldr	r0, [pc, #68]	@ (8002910 <Numero_5+0x5c>)
 80028cc:	f7fe fefe 	bl	80016cc <I2C_Tx_2Bytes>
I2C_Tx_2Bytes(I2C3, AdreSSD1306, ControlbD, 0xDB);
 80028d0:	23db      	movs	r3, #219	@ 0xdb
 80028d2:	2240      	movs	r2, #64	@ 0x40
 80028d4:	213c      	movs	r1, #60	@ 0x3c
 80028d6:	480e      	ldr	r0, [pc, #56]	@ (8002910 <Numero_5+0x5c>)
 80028d8:	f7fe fef8 	bl	80016cc <I2C_Tx_2Bytes>
I2C_Tx_2Bytes(I2C3, AdreSSD1306, ControlbD, 0xDB);
 80028dc:	23db      	movs	r3, #219	@ 0xdb
 80028de:	2240      	movs	r2, #64	@ 0x40
 80028e0:	213c      	movs	r1, #60	@ 0x3c
 80028e2:	480b      	ldr	r0, [pc, #44]	@ (8002910 <Numero_5+0x5c>)
 80028e4:	f7fe fef2 	bl	80016cc <I2C_Tx_2Bytes>
I2C_Tx_2Bytes(I2C3, AdreSSD1306, ControlbD, 0xFB);
 80028e8:	23fb      	movs	r3, #251	@ 0xfb
 80028ea:	2240      	movs	r2, #64	@ 0x40
 80028ec:	213c      	movs	r1, #60	@ 0x3c
 80028ee:	4808      	ldr	r0, [pc, #32]	@ (8002910 <Numero_5+0x5c>)
 80028f0:	f7fe feec 	bl	80016cc <I2C_Tx_2Bytes>
I2C_Tx_2Bytes(I2C3, AdreSSD1306, ControlbD, 0xFB);
 80028f4:	23fb      	movs	r3, #251	@ 0xfb
 80028f6:	2240      	movs	r2, #64	@ 0x40
 80028f8:	213c      	movs	r1, #60	@ 0x3c
 80028fa:	4805      	ldr	r0, [pc, #20]	@ (8002910 <Numero_5+0x5c>)
 80028fc:	f7fe fee6 	bl	80016cc <I2C_Tx_2Bytes>
I2C_Tx_2Bytes(I2C3, AdreSSD1306, ControlbD, 0x00);
 8002900:	2300      	movs	r3, #0
 8002902:	2240      	movs	r2, #64	@ 0x40
 8002904:	213c      	movs	r1, #60	@ 0x3c
 8002906:	4802      	ldr	r0, [pc, #8]	@ (8002910 <Numero_5+0x5c>)
 8002908:	f7fe fee0 	bl	80016cc <I2C_Tx_2Bytes>
}
 800290c:	bf00      	nop
 800290e:	bd80      	pop	{r7, pc}
 8002910:	40005c00 	.word	0x40005c00

08002914 <Numero_6>:
void Numero_6(void){
 8002914:	b580      	push	{r7, lr}
 8002916:	af00      	add	r7, sp, #0
I2C_Tx_2Bytes(I2C3, AdreSSD1306, ControlbD, 0xFF);
 8002918:	23ff      	movs	r3, #255	@ 0xff
 800291a:	2240      	movs	r2, #64	@ 0x40
 800291c:	213c      	movs	r1, #60	@ 0x3c
 800291e:	4814      	ldr	r0, [pc, #80]	@ (8002970 <Numero_6+0x5c>)
 8002920:	f7fe fed4 	bl	80016cc <I2C_Tx_2Bytes>
I2C_Tx_2Bytes(I2C3, AdreSSD1306, ControlbD, 0xFF);
 8002924:	23ff      	movs	r3, #255	@ 0xff
 8002926:	2240      	movs	r2, #64	@ 0x40
 8002928:	213c      	movs	r1, #60	@ 0x3c
 800292a:	4811      	ldr	r0, [pc, #68]	@ (8002970 <Numero_6+0x5c>)
 800292c:	f7fe fece 	bl	80016cc <I2C_Tx_2Bytes>
I2C_Tx_2Bytes(I2C3, AdreSSD1306, ControlbD, 0xDB);
 8002930:	23db      	movs	r3, #219	@ 0xdb
 8002932:	2240      	movs	r2, #64	@ 0x40
 8002934:	213c      	movs	r1, #60	@ 0x3c
 8002936:	480e      	ldr	r0, [pc, #56]	@ (8002970 <Numero_6+0x5c>)
 8002938:	f7fe fec8 	bl	80016cc <I2C_Tx_2Bytes>
I2C_Tx_2Bytes(I2C3, AdreSSD1306, ControlbD, 0xDB);
 800293c:	23db      	movs	r3, #219	@ 0xdb
 800293e:	2240      	movs	r2, #64	@ 0x40
 8002940:	213c      	movs	r1, #60	@ 0x3c
 8002942:	480b      	ldr	r0, [pc, #44]	@ (8002970 <Numero_6+0x5c>)
 8002944:	f7fe fec2 	bl	80016cc <I2C_Tx_2Bytes>
I2C_Tx_2Bytes(I2C3, AdreSSD1306, ControlbD, 0xFB);
 8002948:	23fb      	movs	r3, #251	@ 0xfb
 800294a:	2240      	movs	r2, #64	@ 0x40
 800294c:	213c      	movs	r1, #60	@ 0x3c
 800294e:	4808      	ldr	r0, [pc, #32]	@ (8002970 <Numero_6+0x5c>)
 8002950:	f7fe febc 	bl	80016cc <I2C_Tx_2Bytes>
I2C_Tx_2Bytes(I2C3, AdreSSD1306, ControlbD, 0xFB);
 8002954:	23fb      	movs	r3, #251	@ 0xfb
 8002956:	2240      	movs	r2, #64	@ 0x40
 8002958:	213c      	movs	r1, #60	@ 0x3c
 800295a:	4805      	ldr	r0, [pc, #20]	@ (8002970 <Numero_6+0x5c>)
 800295c:	f7fe feb6 	bl	80016cc <I2C_Tx_2Bytes>
I2C_Tx_2Bytes(I2C3, AdreSSD1306, ControlbD, 0X00);
 8002960:	2300      	movs	r3, #0
 8002962:	2240      	movs	r2, #64	@ 0x40
 8002964:	213c      	movs	r1, #60	@ 0x3c
 8002966:	4802      	ldr	r0, [pc, #8]	@ (8002970 <Numero_6+0x5c>)
 8002968:	f7fe feb0 	bl	80016cc <I2C_Tx_2Bytes>
}
 800296c:	bf00      	nop
 800296e:	bd80      	pop	{r7, pc}
 8002970:	40005c00 	.word	0x40005c00

08002974 <Numero_7>:


void Numero_7(void){
 8002974:	b580      	push	{r7, lr}
 8002976:	af00      	add	r7, sp, #0
I2C_Tx_2Bytes(I2C3, AdreSSD1306, ControlbD, 0xC3);
 8002978:	23c3      	movs	r3, #195	@ 0xc3
 800297a:	2240      	movs	r2, #64	@ 0x40
 800297c:	213c      	movs	r1, #60	@ 0x3c
 800297e:	4814      	ldr	r0, [pc, #80]	@ (80029d0 <Numero_7+0x5c>)
 8002980:	f7fe fea4 	bl	80016cc <I2C_Tx_2Bytes>
I2C_Tx_2Bytes(I2C3, AdreSSD1306, ControlbD, 0xE3);
 8002984:	23e3      	movs	r3, #227	@ 0xe3
 8002986:	2240      	movs	r2, #64	@ 0x40
 8002988:	213c      	movs	r1, #60	@ 0x3c
 800298a:	4811      	ldr	r0, [pc, #68]	@ (80029d0 <Numero_7+0x5c>)
 800298c:	f7fe fe9e 	bl	80016cc <I2C_Tx_2Bytes>
I2C_Tx_2Bytes(I2C3, AdreSSD1306, ControlbD, 0x3B);
 8002990:	233b      	movs	r3, #59	@ 0x3b
 8002992:	2240      	movs	r2, #64	@ 0x40
 8002994:	213c      	movs	r1, #60	@ 0x3c
 8002996:	480e      	ldr	r0, [pc, #56]	@ (80029d0 <Numero_7+0x5c>)
 8002998:	f7fe fe98 	bl	80016cc <I2C_Tx_2Bytes>
I2C_Tx_2Bytes(I2C3, AdreSSD1306, ControlbD, 0x1F);
 800299c:	231f      	movs	r3, #31
 800299e:	2240      	movs	r2, #64	@ 0x40
 80029a0:	213c      	movs	r1, #60	@ 0x3c
 80029a2:	480b      	ldr	r0, [pc, #44]	@ (80029d0 <Numero_7+0x5c>)
 80029a4:	f7fe fe92 	bl	80016cc <I2C_Tx_2Bytes>
I2C_Tx_2Bytes(I2C3, AdreSSD1306, ControlbD, 0x0F);
 80029a8:	230f      	movs	r3, #15
 80029aa:	2240      	movs	r2, #64	@ 0x40
 80029ac:	213c      	movs	r1, #60	@ 0x3c
 80029ae:	4808      	ldr	r0, [pc, #32]	@ (80029d0 <Numero_7+0x5c>)
 80029b0:	f7fe fe8c 	bl	80016cc <I2C_Tx_2Bytes>
I2C_Tx_2Bytes(I2C3, AdreSSD1306, ControlbD, 0x07);
 80029b4:	2307      	movs	r3, #7
 80029b6:	2240      	movs	r2, #64	@ 0x40
 80029b8:	213c      	movs	r1, #60	@ 0x3c
 80029ba:	4805      	ldr	r0, [pc, #20]	@ (80029d0 <Numero_7+0x5c>)
 80029bc:	f7fe fe86 	bl	80016cc <I2C_Tx_2Bytes>
I2C_Tx_2Bytes(I2C3, AdreSSD1306, ControlbD, 0x00);
 80029c0:	2300      	movs	r3, #0
 80029c2:	2240      	movs	r2, #64	@ 0x40
 80029c4:	213c      	movs	r1, #60	@ 0x3c
 80029c6:	4802      	ldr	r0, [pc, #8]	@ (80029d0 <Numero_7+0x5c>)
 80029c8:	f7fe fe80 	bl	80016cc <I2C_Tx_2Bytes>
}
 80029cc:	bf00      	nop
 80029ce:	bd80      	pop	{r7, pc}
 80029d0:	40005c00 	.word	0x40005c00

080029d4 <Numero_8>:

void Numero_8(void){
 80029d4:	b580      	push	{r7, lr}
 80029d6:	af00      	add	r7, sp, #0
I2C_Tx_2Bytes(I2C3, AdreSSD1306, ControlbD, 0xFF);
 80029d8:	23ff      	movs	r3, #255	@ 0xff
 80029da:	2240      	movs	r2, #64	@ 0x40
 80029dc:	213c      	movs	r1, #60	@ 0x3c
 80029de:	4814      	ldr	r0, [pc, #80]	@ (8002a30 <Numero_8+0x5c>)
 80029e0:	f7fe fe74 	bl	80016cc <I2C_Tx_2Bytes>
I2C_Tx_2Bytes(I2C3, AdreSSD1306, ControlbD, 0xFF);
 80029e4:	23ff      	movs	r3, #255	@ 0xff
 80029e6:	2240      	movs	r2, #64	@ 0x40
 80029e8:	213c      	movs	r1, #60	@ 0x3c
 80029ea:	4811      	ldr	r0, [pc, #68]	@ (8002a30 <Numero_8+0x5c>)
 80029ec:	f7fe fe6e 	bl	80016cc <I2C_Tx_2Bytes>
I2C_Tx_2Bytes(I2C3, AdreSSD1306, ControlbD, 0xDB);
 80029f0:	23db      	movs	r3, #219	@ 0xdb
 80029f2:	2240      	movs	r2, #64	@ 0x40
 80029f4:	213c      	movs	r1, #60	@ 0x3c
 80029f6:	480e      	ldr	r0, [pc, #56]	@ (8002a30 <Numero_8+0x5c>)
 80029f8:	f7fe fe68 	bl	80016cc <I2C_Tx_2Bytes>
I2C_Tx_2Bytes(I2C3, AdreSSD1306, ControlbD, 0xDB);
 80029fc:	23db      	movs	r3, #219	@ 0xdb
 80029fe:	2240      	movs	r2, #64	@ 0x40
 8002a00:	213c      	movs	r1, #60	@ 0x3c
 8002a02:	480b      	ldr	r0, [pc, #44]	@ (8002a30 <Numero_8+0x5c>)
 8002a04:	f7fe fe62 	bl	80016cc <I2C_Tx_2Bytes>
I2C_Tx_2Bytes(I2C3, AdreSSD1306, ControlbD, 0xFF);
 8002a08:	23ff      	movs	r3, #255	@ 0xff
 8002a0a:	2240      	movs	r2, #64	@ 0x40
 8002a0c:	213c      	movs	r1, #60	@ 0x3c
 8002a0e:	4808      	ldr	r0, [pc, #32]	@ (8002a30 <Numero_8+0x5c>)
 8002a10:	f7fe fe5c 	bl	80016cc <I2C_Tx_2Bytes>
I2C_Tx_2Bytes(I2C3, AdreSSD1306, ControlbD, 0xFF);
 8002a14:	23ff      	movs	r3, #255	@ 0xff
 8002a16:	2240      	movs	r2, #64	@ 0x40
 8002a18:	213c      	movs	r1, #60	@ 0x3c
 8002a1a:	4805      	ldr	r0, [pc, #20]	@ (8002a30 <Numero_8+0x5c>)
 8002a1c:	f7fe fe56 	bl	80016cc <I2C_Tx_2Bytes>
I2C_Tx_2Bytes(I2C3, AdreSSD1306, ControlbD, 0X00);
 8002a20:	2300      	movs	r3, #0
 8002a22:	2240      	movs	r2, #64	@ 0x40
 8002a24:	213c      	movs	r1, #60	@ 0x3c
 8002a26:	4802      	ldr	r0, [pc, #8]	@ (8002a30 <Numero_8+0x5c>)
 8002a28:	f7fe fe50 	bl	80016cc <I2C_Tx_2Bytes>
}
 8002a2c:	bf00      	nop
 8002a2e:	bd80      	pop	{r7, pc}
 8002a30:	40005c00 	.word	0x40005c00

08002a34 <Numero_9>:

void Numero_9(void){
 8002a34:	b580      	push	{r7, lr}
 8002a36:	af00      	add	r7, sp, #0
I2C_Tx_2Bytes(I2C3, AdreSSD1306, ControlbD, 0xDF);
 8002a38:	23df      	movs	r3, #223	@ 0xdf
 8002a3a:	2240      	movs	r2, #64	@ 0x40
 8002a3c:	213c      	movs	r1, #60	@ 0x3c
 8002a3e:	4814      	ldr	r0, [pc, #80]	@ (8002a90 <Numero_9+0x5c>)
 8002a40:	f7fe fe44 	bl	80016cc <I2C_Tx_2Bytes>
I2C_Tx_2Bytes(I2C3, AdreSSD1306, ControlbD, 0xDF);
 8002a44:	23df      	movs	r3, #223	@ 0xdf
 8002a46:	2240      	movs	r2, #64	@ 0x40
 8002a48:	213c      	movs	r1, #60	@ 0x3c
 8002a4a:	4811      	ldr	r0, [pc, #68]	@ (8002a90 <Numero_9+0x5c>)
 8002a4c:	f7fe fe3e 	bl	80016cc <I2C_Tx_2Bytes>
I2C_Tx_2Bytes(I2C3, AdreSSD1306, ControlbD, 0xDB);
 8002a50:	23db      	movs	r3, #219	@ 0xdb
 8002a52:	2240      	movs	r2, #64	@ 0x40
 8002a54:	213c      	movs	r1, #60	@ 0x3c
 8002a56:	480e      	ldr	r0, [pc, #56]	@ (8002a90 <Numero_9+0x5c>)
 8002a58:	f7fe fe38 	bl	80016cc <I2C_Tx_2Bytes>
I2C_Tx_2Bytes(I2C3, AdreSSD1306, ControlbD, 0xDB);
 8002a5c:	23db      	movs	r3, #219	@ 0xdb
 8002a5e:	2240      	movs	r2, #64	@ 0x40
 8002a60:	213c      	movs	r1, #60	@ 0x3c
 8002a62:	480b      	ldr	r0, [pc, #44]	@ (8002a90 <Numero_9+0x5c>)
 8002a64:	f7fe fe32 	bl	80016cc <I2C_Tx_2Bytes>
I2C_Tx_2Bytes(I2C3, AdreSSD1306, ControlbD, 0xFF);
 8002a68:	23ff      	movs	r3, #255	@ 0xff
 8002a6a:	2240      	movs	r2, #64	@ 0x40
 8002a6c:	213c      	movs	r1, #60	@ 0x3c
 8002a6e:	4808      	ldr	r0, [pc, #32]	@ (8002a90 <Numero_9+0x5c>)
 8002a70:	f7fe fe2c 	bl	80016cc <I2C_Tx_2Bytes>
I2C_Tx_2Bytes(I2C3, AdreSSD1306, ControlbD, 0xFF);
 8002a74:	23ff      	movs	r3, #255	@ 0xff
 8002a76:	2240      	movs	r2, #64	@ 0x40
 8002a78:	213c      	movs	r1, #60	@ 0x3c
 8002a7a:	4805      	ldr	r0, [pc, #20]	@ (8002a90 <Numero_9+0x5c>)
 8002a7c:	f7fe fe26 	bl	80016cc <I2C_Tx_2Bytes>
I2C_Tx_2Bytes(I2C3, AdreSSD1306, ControlbD, 0x00);
 8002a80:	2300      	movs	r3, #0
 8002a82:	2240      	movs	r2, #64	@ 0x40
 8002a84:	213c      	movs	r1, #60	@ 0x3c
 8002a86:	4802      	ldr	r0, [pc, #8]	@ (8002a90 <Numero_9+0x5c>)
 8002a88:	f7fe fe20 	bl	80016cc <I2C_Tx_2Bytes>
}
 8002a8c:	bf00      	nop
 8002a8e:	bd80      	pop	{r7, pc}
 8002a90:	40005c00 	.word	0x40005c00

08002a94 <Numero_0>:
void Numero_0(void){
 8002a94:	b580      	push	{r7, lr}
 8002a96:	af00      	add	r7, sp, #0
I2C_Tx_2Bytes(I2C3, AdreSSD1306, ControlbD, 0xFF);
 8002a98:	23ff      	movs	r3, #255	@ 0xff
 8002a9a:	2240      	movs	r2, #64	@ 0x40
 8002a9c:	213c      	movs	r1, #60	@ 0x3c
 8002a9e:	4814      	ldr	r0, [pc, #80]	@ (8002af0 <Numero_0+0x5c>)
 8002aa0:	f7fe fe14 	bl	80016cc <I2C_Tx_2Bytes>
I2C_Tx_2Bytes(I2C3, AdreSSD1306, ControlbD, 0xFF);
 8002aa4:	23ff      	movs	r3, #255	@ 0xff
 8002aa6:	2240      	movs	r2, #64	@ 0x40
 8002aa8:	213c      	movs	r1, #60	@ 0x3c
 8002aaa:	4811      	ldr	r0, [pc, #68]	@ (8002af0 <Numero_0+0x5c>)
 8002aac:	f7fe fe0e 	bl	80016cc <I2C_Tx_2Bytes>
I2C_Tx_2Bytes(I2C3, AdreSSD1306, ControlbD, 0xC3);
 8002ab0:	23c3      	movs	r3, #195	@ 0xc3
 8002ab2:	2240      	movs	r2, #64	@ 0x40
 8002ab4:	213c      	movs	r1, #60	@ 0x3c
 8002ab6:	480e      	ldr	r0, [pc, #56]	@ (8002af0 <Numero_0+0x5c>)
 8002ab8:	f7fe fe08 	bl	80016cc <I2C_Tx_2Bytes>
I2C_Tx_2Bytes(I2C3, AdreSSD1306, ControlbD, 0xC3);
 8002abc:	23c3      	movs	r3, #195	@ 0xc3
 8002abe:	2240      	movs	r2, #64	@ 0x40
 8002ac0:	213c      	movs	r1, #60	@ 0x3c
 8002ac2:	480b      	ldr	r0, [pc, #44]	@ (8002af0 <Numero_0+0x5c>)
 8002ac4:	f7fe fe02 	bl	80016cc <I2C_Tx_2Bytes>
I2C_Tx_2Bytes(I2C3, AdreSSD1306, ControlbD, 0xFF);
 8002ac8:	23ff      	movs	r3, #255	@ 0xff
 8002aca:	2240      	movs	r2, #64	@ 0x40
 8002acc:	213c      	movs	r1, #60	@ 0x3c
 8002ace:	4808      	ldr	r0, [pc, #32]	@ (8002af0 <Numero_0+0x5c>)
 8002ad0:	f7fe fdfc 	bl	80016cc <I2C_Tx_2Bytes>
I2C_Tx_2Bytes(I2C3, AdreSSD1306, ControlbD, 0xFF);
 8002ad4:	23ff      	movs	r3, #255	@ 0xff
 8002ad6:	2240      	movs	r2, #64	@ 0x40
 8002ad8:	213c      	movs	r1, #60	@ 0x3c
 8002ada:	4805      	ldr	r0, [pc, #20]	@ (8002af0 <Numero_0+0x5c>)
 8002adc:	f7fe fdf6 	bl	80016cc <I2C_Tx_2Bytes>
I2C_Tx_2Bytes(I2C3, AdreSSD1306, ControlbD, 0x00);
 8002ae0:	2300      	movs	r3, #0
 8002ae2:	2240      	movs	r2, #64	@ 0x40
 8002ae4:	213c      	movs	r1, #60	@ 0x3c
 8002ae6:	4802      	ldr	r0, [pc, #8]	@ (8002af0 <Numero_0+0x5c>)
 8002ae8:	f7fe fdf0 	bl	80016cc <I2C_Tx_2Bytes>
}
 8002aec:	bf00      	nop
 8002aee:	bd80      	pop	{r7, pc}
 8002af0:	40005c00 	.word	0x40005c00

08002af4 <DosPuntos>:

void DosPuntos(void){
 8002af4:	b580      	push	{r7, lr}
 8002af6:	af00      	add	r7, sp, #0
I2C_Tx_2Bytes(I2C3, AdreSSD1306, ControlbD, 0xC3);
 8002af8:	23c3      	movs	r3, #195	@ 0xc3
 8002afa:	2240      	movs	r2, #64	@ 0x40
 8002afc:	213c      	movs	r1, #60	@ 0x3c
 8002afe:	4808      	ldr	r0, [pc, #32]	@ (8002b20 <DosPuntos+0x2c>)
 8002b00:	f7fe fde4 	bl	80016cc <I2C_Tx_2Bytes>
I2C_Tx_2Bytes(I2C3, AdreSSD1306, ControlbD, 0xC3);
 8002b04:	23c3      	movs	r3, #195	@ 0xc3
 8002b06:	2240      	movs	r2, #64	@ 0x40
 8002b08:	213c      	movs	r1, #60	@ 0x3c
 8002b0a:	4805      	ldr	r0, [pc, #20]	@ (8002b20 <DosPuntos+0x2c>)
 8002b0c:	f7fe fdde 	bl	80016cc <I2C_Tx_2Bytes>
I2C_Tx_2Bytes(I2C3, AdreSSD1306, ControlbD, 0x00);
 8002b10:	2300      	movs	r3, #0
 8002b12:	2240      	movs	r2, #64	@ 0x40
 8002b14:	213c      	movs	r1, #60	@ 0x3c
 8002b16:	4802      	ldr	r0, [pc, #8]	@ (8002b20 <DosPuntos+0x2c>)
 8002b18:	f7fe fdd8 	bl	80016cc <I2C_Tx_2Bytes>
}
 8002b1c:	bf00      	nop
 8002b1e:	bd80      	pop	{r7, pc}
 8002b20:	40005c00 	.word	0x40005c00

08002b24 <Simbolo_Grados>:

void Simbolo_Grados(void) {
 8002b24:	b580      	push	{r7, lr}
 8002b26:	af00      	add	r7, sp, #0
    // Ajustamos los valores para subir el símbolo de grados
    I2C_Tx_2Bytes(I2C3, AdreSSD1306, ControlbD, 0x30); // Parte superior del círculo, subido
 8002b28:	2330      	movs	r3, #48	@ 0x30
 8002b2a:	2240      	movs	r2, #64	@ 0x40
 8002b2c:	213c      	movs	r1, #60	@ 0x3c
 8002b2e:	480b      	ldr	r0, [pc, #44]	@ (8002b5c <Simbolo_Grados+0x38>)
 8002b30:	f7fe fdcc 	bl	80016cc <I2C_Tx_2Bytes>
    I2C_Tx_2Bytes(I2C3, AdreSSD1306, ControlbD, 0x48); // Lados del círculo, subido
 8002b34:	2348      	movs	r3, #72	@ 0x48
 8002b36:	2240      	movs	r2, #64	@ 0x40
 8002b38:	213c      	movs	r1, #60	@ 0x3c
 8002b3a:	4808      	ldr	r0, [pc, #32]	@ (8002b5c <Simbolo_Grados+0x38>)
 8002b3c:	f7fe fdc6 	bl	80016cc <I2C_Tx_2Bytes>
    I2C_Tx_2Bytes(I2C3, AdreSSD1306, ControlbD, 0x30); // Parte inferior del círculo, subido
 8002b40:	2330      	movs	r3, #48	@ 0x30
 8002b42:	2240      	movs	r2, #64	@ 0x40
 8002b44:	213c      	movs	r1, #60	@ 0x3c
 8002b46:	4805      	ldr	r0, [pc, #20]	@ (8002b5c <Simbolo_Grados+0x38>)
 8002b48:	f7fe fdc0 	bl	80016cc <I2C_Tx_2Bytes>
    I2C_Tx_2Bytes(I2C3, AdreSSD1306, ControlbD, 0x00); // Separación
 8002b4c:	2300      	movs	r3, #0
 8002b4e:	2240      	movs	r2, #64	@ 0x40
 8002b50:	213c      	movs	r1, #60	@ 0x3c
 8002b52:	4802      	ldr	r0, [pc, #8]	@ (8002b5c <Simbolo_Grados+0x38>)
 8002b54:	f7fe fdba 	bl	80016cc <I2C_Tx_2Bytes>
}
 8002b58:	bf00      	nop
 8002b5a:	bd80      	pop	{r7, pc}
 8002b5c:	40005c00 	.word	0x40005c00

08002b60 <SSD1306_Clear>:
}




void SSD1306_Clear(void){
 8002b60:	b580      	push	{r7, lr}
 8002b62:	b082      	sub	sp, #8
 8002b64:	af00      	add	r7, sp, #0
    int c;
    I2C_Tx_2Bytes(I2C3, AdreSSD1306, ControlbC, SSD1306_SETPAGE0);
 8002b66:	23b0      	movs	r3, #176	@ 0xb0
 8002b68:	2200      	movs	r2, #0
 8002b6a:	213c      	movs	r1, #60	@ 0x3c
 8002b6c:	4869      	ldr	r0, [pc, #420]	@ (8002d14 <SSD1306_Clear+0x1b4>)
 8002b6e:	f7fe fdad 	bl	80016cc <I2C_Tx_2Bytes>
    SSD1306_PosCom(0);
 8002b72:	2000      	movs	r0, #0
 8002b74:	f000 f8d0 	bl	8002d18 <SSD1306_PosCom>
for(c=0;c<128;c++){
 8002b78:	2300      	movs	r3, #0
 8002b7a:	607b      	str	r3, [r7, #4]
 8002b7c:	e008      	b.n	8002b90 <SSD1306_Clear+0x30>
	I2C_Tx_2Bytes(I2C3, AdreSSD1306, ControlbD, 0x00);
 8002b7e:	2300      	movs	r3, #0
 8002b80:	2240      	movs	r2, #64	@ 0x40
 8002b82:	213c      	movs	r1, #60	@ 0x3c
 8002b84:	4863      	ldr	r0, [pc, #396]	@ (8002d14 <SSD1306_Clear+0x1b4>)
 8002b86:	f7fe fda1 	bl	80016cc <I2C_Tx_2Bytes>
for(c=0;c<128;c++){
 8002b8a:	687b      	ldr	r3, [r7, #4]
 8002b8c:	3301      	adds	r3, #1
 8002b8e:	607b      	str	r3, [r7, #4]
 8002b90:	687b      	ldr	r3, [r7, #4]
 8002b92:	2b7f      	cmp	r3, #127	@ 0x7f
 8002b94:	ddf3      	ble.n	8002b7e <SSD1306_Clear+0x1e>
}
I2C_Tx_2Bytes(I2C3, AdreSSD1306, ControlbC, SSD1306_SETPAGE1);
 8002b96:	23b1      	movs	r3, #177	@ 0xb1
 8002b98:	2200      	movs	r2, #0
 8002b9a:	213c      	movs	r1, #60	@ 0x3c
 8002b9c:	485d      	ldr	r0, [pc, #372]	@ (8002d14 <SSD1306_Clear+0x1b4>)
 8002b9e:	f7fe fd95 	bl	80016cc <I2C_Tx_2Bytes>
SSD1306_PosCom(0);
 8002ba2:	2000      	movs	r0, #0
 8002ba4:	f000 f8b8 	bl	8002d18 <SSD1306_PosCom>
for(c=0;c<128;c++){
 8002ba8:	2300      	movs	r3, #0
 8002baa:	607b      	str	r3, [r7, #4]
 8002bac:	e008      	b.n	8002bc0 <SSD1306_Clear+0x60>
	I2C_Tx_2Bytes(I2C3, AdreSSD1306, ControlbD, 0x00);
 8002bae:	2300      	movs	r3, #0
 8002bb0:	2240      	movs	r2, #64	@ 0x40
 8002bb2:	213c      	movs	r1, #60	@ 0x3c
 8002bb4:	4857      	ldr	r0, [pc, #348]	@ (8002d14 <SSD1306_Clear+0x1b4>)
 8002bb6:	f7fe fd89 	bl	80016cc <I2C_Tx_2Bytes>
for(c=0;c<128;c++){
 8002bba:	687b      	ldr	r3, [r7, #4]
 8002bbc:	3301      	adds	r3, #1
 8002bbe:	607b      	str	r3, [r7, #4]
 8002bc0:	687b      	ldr	r3, [r7, #4]
 8002bc2:	2b7f      	cmp	r3, #127	@ 0x7f
 8002bc4:	ddf3      	ble.n	8002bae <SSD1306_Clear+0x4e>
}
I2C_Tx_2Bytes(I2C3, AdreSSD1306, ControlbC, SSD1306_SETPAGE2);
 8002bc6:	23b2      	movs	r3, #178	@ 0xb2
 8002bc8:	2200      	movs	r2, #0
 8002bca:	213c      	movs	r1, #60	@ 0x3c
 8002bcc:	4851      	ldr	r0, [pc, #324]	@ (8002d14 <SSD1306_Clear+0x1b4>)
 8002bce:	f7fe fd7d 	bl	80016cc <I2C_Tx_2Bytes>
SSD1306_PosCom(0);
 8002bd2:	2000      	movs	r0, #0
 8002bd4:	f000 f8a0 	bl	8002d18 <SSD1306_PosCom>
for(c=0;c<128;c++){
 8002bd8:	2300      	movs	r3, #0
 8002bda:	607b      	str	r3, [r7, #4]
 8002bdc:	e008      	b.n	8002bf0 <SSD1306_Clear+0x90>
	I2C_Tx_2Bytes(I2C3, AdreSSD1306, ControlbD, 0x00);
 8002bde:	2300      	movs	r3, #0
 8002be0:	2240      	movs	r2, #64	@ 0x40
 8002be2:	213c      	movs	r1, #60	@ 0x3c
 8002be4:	484b      	ldr	r0, [pc, #300]	@ (8002d14 <SSD1306_Clear+0x1b4>)
 8002be6:	f7fe fd71 	bl	80016cc <I2C_Tx_2Bytes>
for(c=0;c<128;c++){
 8002bea:	687b      	ldr	r3, [r7, #4]
 8002bec:	3301      	adds	r3, #1
 8002bee:	607b      	str	r3, [r7, #4]
 8002bf0:	687b      	ldr	r3, [r7, #4]
 8002bf2:	2b7f      	cmp	r3, #127	@ 0x7f
 8002bf4:	ddf3      	ble.n	8002bde <SSD1306_Clear+0x7e>
}
I2C_Tx_2Bytes(I2C3, AdreSSD1306, ControlbC, SSD1306_SETPAGE3);
 8002bf6:	23b3      	movs	r3, #179	@ 0xb3
 8002bf8:	2200      	movs	r2, #0
 8002bfa:	213c      	movs	r1, #60	@ 0x3c
 8002bfc:	4845      	ldr	r0, [pc, #276]	@ (8002d14 <SSD1306_Clear+0x1b4>)
 8002bfe:	f7fe fd65 	bl	80016cc <I2C_Tx_2Bytes>
SSD1306_PosCom(0);
 8002c02:	2000      	movs	r0, #0
 8002c04:	f000 f888 	bl	8002d18 <SSD1306_PosCom>
for(c=0;c<128;c++){
 8002c08:	2300      	movs	r3, #0
 8002c0a:	607b      	str	r3, [r7, #4]
 8002c0c:	e008      	b.n	8002c20 <SSD1306_Clear+0xc0>
	I2C_Tx_2Bytes(I2C3, AdreSSD1306, ControlbD, 0x00);
 8002c0e:	2300      	movs	r3, #0
 8002c10:	2240      	movs	r2, #64	@ 0x40
 8002c12:	213c      	movs	r1, #60	@ 0x3c
 8002c14:	483f      	ldr	r0, [pc, #252]	@ (8002d14 <SSD1306_Clear+0x1b4>)
 8002c16:	f7fe fd59 	bl	80016cc <I2C_Tx_2Bytes>
for(c=0;c<128;c++){
 8002c1a:	687b      	ldr	r3, [r7, #4]
 8002c1c:	3301      	adds	r3, #1
 8002c1e:	607b      	str	r3, [r7, #4]
 8002c20:	687b      	ldr	r3, [r7, #4]
 8002c22:	2b7f      	cmp	r3, #127	@ 0x7f
 8002c24:	ddf3      	ble.n	8002c0e <SSD1306_Clear+0xae>
}
I2C_Tx_2Bytes(I2C3, AdreSSD1306, ControlbC, SSD1306_SETPAGE4);
 8002c26:	23b4      	movs	r3, #180	@ 0xb4
 8002c28:	2200      	movs	r2, #0
 8002c2a:	213c      	movs	r1, #60	@ 0x3c
 8002c2c:	4839      	ldr	r0, [pc, #228]	@ (8002d14 <SSD1306_Clear+0x1b4>)
 8002c2e:	f7fe fd4d 	bl	80016cc <I2C_Tx_2Bytes>
SSD1306_PosCom(0);
 8002c32:	2000      	movs	r0, #0
 8002c34:	f000 f870 	bl	8002d18 <SSD1306_PosCom>
for(c=0;c<128;c++){
 8002c38:	2300      	movs	r3, #0
 8002c3a:	607b      	str	r3, [r7, #4]
 8002c3c:	e008      	b.n	8002c50 <SSD1306_Clear+0xf0>
I2C_Tx_2Bytes(I2C3, AdreSSD1306, ControlbD, 0x00);
 8002c3e:	2300      	movs	r3, #0
 8002c40:	2240      	movs	r2, #64	@ 0x40
 8002c42:	213c      	movs	r1, #60	@ 0x3c
 8002c44:	4833      	ldr	r0, [pc, #204]	@ (8002d14 <SSD1306_Clear+0x1b4>)
 8002c46:	f7fe fd41 	bl	80016cc <I2C_Tx_2Bytes>
for(c=0;c<128;c++){
 8002c4a:	687b      	ldr	r3, [r7, #4]
 8002c4c:	3301      	adds	r3, #1
 8002c4e:	607b      	str	r3, [r7, #4]
 8002c50:	687b      	ldr	r3, [r7, #4]
 8002c52:	2b7f      	cmp	r3, #127	@ 0x7f
 8002c54:	ddf3      	ble.n	8002c3e <SSD1306_Clear+0xde>
}
I2C_Tx_2Bytes(I2C3, AdreSSD1306, ControlbC, SSD1306_SETPAGE5);
 8002c56:	23b5      	movs	r3, #181	@ 0xb5
 8002c58:	2200      	movs	r2, #0
 8002c5a:	213c      	movs	r1, #60	@ 0x3c
 8002c5c:	482d      	ldr	r0, [pc, #180]	@ (8002d14 <SSD1306_Clear+0x1b4>)
 8002c5e:	f7fe fd35 	bl	80016cc <I2C_Tx_2Bytes>
SSD1306_PosCom(0);
 8002c62:	2000      	movs	r0, #0
 8002c64:	f000 f858 	bl	8002d18 <SSD1306_PosCom>
for(c=0;c<128;c++){
 8002c68:	2300      	movs	r3, #0
 8002c6a:	607b      	str	r3, [r7, #4]
 8002c6c:	e008      	b.n	8002c80 <SSD1306_Clear+0x120>
I2C_Tx_2Bytes(I2C3, AdreSSD1306, ControlbD, 0x00);
 8002c6e:	2300      	movs	r3, #0
 8002c70:	2240      	movs	r2, #64	@ 0x40
 8002c72:	213c      	movs	r1, #60	@ 0x3c
 8002c74:	4827      	ldr	r0, [pc, #156]	@ (8002d14 <SSD1306_Clear+0x1b4>)
 8002c76:	f7fe fd29 	bl	80016cc <I2C_Tx_2Bytes>
for(c=0;c<128;c++){
 8002c7a:	687b      	ldr	r3, [r7, #4]
 8002c7c:	3301      	adds	r3, #1
 8002c7e:	607b      	str	r3, [r7, #4]
 8002c80:	687b      	ldr	r3, [r7, #4]
 8002c82:	2b7f      	cmp	r3, #127	@ 0x7f
 8002c84:	ddf3      	ble.n	8002c6e <SSD1306_Clear+0x10e>
}
I2C_Tx_2Bytes(I2C3, AdreSSD1306, ControlbC, SSD1306_SETPAGE6);
 8002c86:	23b6      	movs	r3, #182	@ 0xb6
 8002c88:	2200      	movs	r2, #0
 8002c8a:	213c      	movs	r1, #60	@ 0x3c
 8002c8c:	4821      	ldr	r0, [pc, #132]	@ (8002d14 <SSD1306_Clear+0x1b4>)
 8002c8e:	f7fe fd1d 	bl	80016cc <I2C_Tx_2Bytes>
SSD1306_PosCom(0);
 8002c92:	2000      	movs	r0, #0
 8002c94:	f000 f840 	bl	8002d18 <SSD1306_PosCom>
for(c=0;c<128;c++){
 8002c98:	2300      	movs	r3, #0
 8002c9a:	607b      	str	r3, [r7, #4]
 8002c9c:	e008      	b.n	8002cb0 <SSD1306_Clear+0x150>
I2C_Tx_2Bytes(I2C3, AdreSSD1306, ControlbD, 0x00);
 8002c9e:	2300      	movs	r3, #0
 8002ca0:	2240      	movs	r2, #64	@ 0x40
 8002ca2:	213c      	movs	r1, #60	@ 0x3c
 8002ca4:	481b      	ldr	r0, [pc, #108]	@ (8002d14 <SSD1306_Clear+0x1b4>)
 8002ca6:	f7fe fd11 	bl	80016cc <I2C_Tx_2Bytes>
for(c=0;c<128;c++){
 8002caa:	687b      	ldr	r3, [r7, #4]
 8002cac:	3301      	adds	r3, #1
 8002cae:	607b      	str	r3, [r7, #4]
 8002cb0:	687b      	ldr	r3, [r7, #4]
 8002cb2:	2b7f      	cmp	r3, #127	@ 0x7f
 8002cb4:	ddf3      	ble.n	8002c9e <SSD1306_Clear+0x13e>
}
I2C_Tx_2Bytes(I2C3, AdreSSD1306, ControlbC, SSD1306_SETPAGE7);
 8002cb6:	23b7      	movs	r3, #183	@ 0xb7
 8002cb8:	2200      	movs	r2, #0
 8002cba:	213c      	movs	r1, #60	@ 0x3c
 8002cbc:	4815      	ldr	r0, [pc, #84]	@ (8002d14 <SSD1306_Clear+0x1b4>)
 8002cbe:	f7fe fd05 	bl	80016cc <I2C_Tx_2Bytes>
SSD1306_PosCom(0);
 8002cc2:	2000      	movs	r0, #0
 8002cc4:	f000 f828 	bl	8002d18 <SSD1306_PosCom>
for(c=0;c<128;c++){
 8002cc8:	2300      	movs	r3, #0
 8002cca:	607b      	str	r3, [r7, #4]
 8002ccc:	e008      	b.n	8002ce0 <SSD1306_Clear+0x180>
I2C_Tx_2Bytes(I2C3, AdreSSD1306, ControlbD, 0x00);
 8002cce:	2300      	movs	r3, #0
 8002cd0:	2240      	movs	r2, #64	@ 0x40
 8002cd2:	213c      	movs	r1, #60	@ 0x3c
 8002cd4:	480f      	ldr	r0, [pc, #60]	@ (8002d14 <SSD1306_Clear+0x1b4>)
 8002cd6:	f7fe fcf9 	bl	80016cc <I2C_Tx_2Bytes>
for(c=0;c<128;c++){
 8002cda:	687b      	ldr	r3, [r7, #4]
 8002cdc:	3301      	adds	r3, #1
 8002cde:	607b      	str	r3, [r7, #4]
 8002ce0:	687b      	ldr	r3, [r7, #4]
 8002ce2:	2b7f      	cmp	r3, #127	@ 0x7f
 8002ce4:	ddf3      	ble.n	8002cce <SSD1306_Clear+0x16e>
}
I2C_Tx_2Bytes(I2C3, AdreSSD1306, ControlbC, SSD1306_SETPAGE0);
 8002ce6:	23b0      	movs	r3, #176	@ 0xb0
 8002ce8:	2200      	movs	r2, #0
 8002cea:	213c      	movs	r1, #60	@ 0x3c
 8002cec:	4809      	ldr	r0, [pc, #36]	@ (8002d14 <SSD1306_Clear+0x1b4>)
 8002cee:	f7fe fced 	bl	80016cc <I2C_Tx_2Bytes>
I2C_Tx_2Bytes(I2C3, AdreSSD1306, ControlbC, 0x00);
 8002cf2:	2300      	movs	r3, #0
 8002cf4:	2200      	movs	r2, #0
 8002cf6:	213c      	movs	r1, #60	@ 0x3c
 8002cf8:	4806      	ldr	r0, [pc, #24]	@ (8002d14 <SSD1306_Clear+0x1b4>)
 8002cfa:	f7fe fce7 	bl	80016cc <I2C_Tx_2Bytes>
I2C_Tx_2Bytes(I2C3, AdreSSD1306, ControlbC, 0x00);
 8002cfe:	2300      	movs	r3, #0
 8002d00:	2200      	movs	r2, #0
 8002d02:	213c      	movs	r1, #60	@ 0x3c
 8002d04:	4803      	ldr	r0, [pc, #12]	@ (8002d14 <SSD1306_Clear+0x1b4>)
 8002d06:	f7fe fce1 	bl	80016cc <I2C_Tx_2Bytes>
}
 8002d0a:	bf00      	nop
 8002d0c:	3708      	adds	r7, #8
 8002d0e:	46bd      	mov	sp, r7
 8002d10:	bd80      	pop	{r7, pc}
 8002d12:	bf00      	nop
 8002d14:	40005c00 	.word	0x40005c00

08002d18 <SSD1306_PosCom>:


void SSD1306_PosCom(uint8_t Pos){
 8002d18:	b580      	push	{r7, lr}
 8002d1a:	b084      	sub	sp, #16
 8002d1c:	af00      	add	r7, sp, #0
 8002d1e:	4603      	mov	r3, r0
 8002d20:	71fb      	strb	r3, [r7, #7]

    uint8_t high = (Pos & 0xF0) >> 4; // Parte alta del número
 8002d22:	79fb      	ldrb	r3, [r7, #7]
 8002d24:	091b      	lsrs	r3, r3, #4
 8002d26:	73fb      	strb	r3, [r7, #15]
    uint8_t low = Pos & 0x0F;         // Parte baja del número
 8002d28:	79fb      	ldrb	r3, [r7, #7]
 8002d2a:	f003 030f 	and.w	r3, r3, #15
 8002d2e:	73bb      	strb	r3, [r7, #14]

    I2C_Tx_2Bytes(I2C3, AdreSSD1306, ControlbC, 0x10 | high); // Enviar parte alta
 8002d30:	7bfb      	ldrb	r3, [r7, #15]
 8002d32:	f043 0310 	orr.w	r3, r3, #16
 8002d36:	b2db      	uxtb	r3, r3
 8002d38:	2200      	movs	r2, #0
 8002d3a:	213c      	movs	r1, #60	@ 0x3c
 8002d3c:	4806      	ldr	r0, [pc, #24]	@ (8002d58 <SSD1306_PosCom+0x40>)
 8002d3e:	f7fe fcc5 	bl	80016cc <I2C_Tx_2Bytes>
    I2C_Tx_2Bytes(I2C3, AdreSSD1306, ControlbC, 0x00 | low);  // Enviar parte baja
 8002d42:	7bbb      	ldrb	r3, [r7, #14]
 8002d44:	2200      	movs	r2, #0
 8002d46:	213c      	movs	r1, #60	@ 0x3c
 8002d48:	4803      	ldr	r0, [pc, #12]	@ (8002d58 <SSD1306_PosCom+0x40>)
 8002d4a:	f7fe fcbf 	bl	80016cc <I2C_Tx_2Bytes>

}
 8002d4e:	bf00      	nop
 8002d50:	3710      	adds	r7, #16
 8002d52:	46bd      	mov	sp, r7
 8002d54:	bd80      	pop	{r7, pc}
 8002d56:	bf00      	nop
 8002d58:	40005c00 	.word	0x40005c00

08002d5c <MPU6050_Init>:
void MPU6050_Init(void);


int16_t MPU6050_Read(uint8_t Register);

void MPU6050_Init(void){
 8002d5c:	b580      	push	{r7, lr}
 8002d5e:	af00      	add	r7, sp, #0
    I2C_Tx_2Bytes(I2C3, AddressMPU6050, MPU6050_PWR_MGMT_1, 0x00);
 8002d60:	2300      	movs	r3, #0
 8002d62:	226b      	movs	r2, #107	@ 0x6b
 8002d64:	2168      	movs	r1, #104	@ 0x68
 8002d66:	4814      	ldr	r0, [pc, #80]	@ (8002db8 <MPU6050_Init+0x5c>)
 8002d68:	f7fe fcb0 	bl	80016cc <I2C_Tx_2Bytes>
    I2C_Tx_2Bytes(I2C3, AddressMPU6050, MPU6050_ACCEL_CONFIG, 0X00); //Configura el acelerometro a +-4g
 8002d6c:	2300      	movs	r3, #0
 8002d6e:	221c      	movs	r2, #28
 8002d70:	2168      	movs	r1, #104	@ 0x68
 8002d72:	4811      	ldr	r0, [pc, #68]	@ (8002db8 <MPU6050_Init+0x5c>)
 8002d74:	f7fe fcaa 	bl	80016cc <I2C_Tx_2Bytes>
    I2C_Tx_2Bytes(I2C3, AddressMPU6050, MPU6050_GYRO_CONFIG, 0X00); //Configura giroscopio a +- 250°/s
 8002d78:	2300      	movs	r3, #0
 8002d7a:	221b      	movs	r2, #27
 8002d7c:	2168      	movs	r1, #104	@ 0x68
 8002d7e:	480e      	ldr	r0, [pc, #56]	@ (8002db8 <MPU6050_Init+0x5c>)
 8002d80:	f7fe fca4 	bl	80016cc <I2C_Tx_2Bytes>
    I2C_Tx_2Bytes(I2C3, AddressMPU6050, 0x19, 0X07);
 8002d84:	2307      	movs	r3, #7
 8002d86:	2219      	movs	r2, #25
 8002d88:	2168      	movs	r1, #104	@ 0x68
 8002d8a:	480b      	ldr	r0, [pc, #44]	@ (8002db8 <MPU6050_Init+0x5c>)
 8002d8c:	f7fe fc9e 	bl	80016cc <I2C_Tx_2Bytes>
    I2C_Tx_2Bytes(I2C3, AddressMPU6050, MPU6050_CONFIG, 0x01);
 8002d90:	2301      	movs	r3, #1
 8002d92:	221a      	movs	r2, #26
 8002d94:	2168      	movs	r1, #104	@ 0x68
 8002d96:	4808      	ldr	r0, [pc, #32]	@ (8002db8 <MPU6050_Init+0x5c>)
 8002d98:	f7fe fc98 	bl	80016cc <I2C_Tx_2Bytes>
    //I2C_Tx_2Bytes(I2C3, AddressMPU6050, MPU6050_CONFIG, 0x01);
   // I2C_Tx_2Bytes(I2C3, AddressMPU6050, MPU6050_ACCEL_CONFIG, 0X00);
    //I2C_Tx_2Bytes(I2C3, AddressMPU6050, MPU6050_FIFO_EN, 0XFF);
     I2C_Tx_2Bytes(I2C3, AddressMPU6050, MPU6050_FIFO_EN, 0xFF);
 8002d9c:	23ff      	movs	r3, #255	@ 0xff
 8002d9e:	2223      	movs	r2, #35	@ 0x23
 8002da0:	2168      	movs	r1, #104	@ 0x68
 8002da2:	4805      	ldr	r0, [pc, #20]	@ (8002db8 <MPU6050_Init+0x5c>)
 8002da4:	f7fe fc92 	bl	80016cc <I2C_Tx_2Bytes>
    I2C_Tx_2Bytes(I2C3, AddressMPU6050, MPU6050_USER_CTRL, 0x40);
 8002da8:	2340      	movs	r3, #64	@ 0x40
 8002daa:	226a      	movs	r2, #106	@ 0x6a
 8002dac:	2168      	movs	r1, #104	@ 0x68
 8002dae:	4802      	ldr	r0, [pc, #8]	@ (8002db8 <MPU6050_Init+0x5c>)
 8002db0:	f7fe fc8c 	bl	80016cc <I2C_Tx_2Bytes>
}
 8002db4:	bf00      	nop
 8002db6:	bd80      	pop	{r7, pc}
 8002db8:	40005c00 	.word	0x40005c00

08002dbc <MPU6050_Read>:

int16_t MPU6050_Read(uint8_t Register){
 8002dbc:	b580      	push	{r7, lr}
 8002dbe:	b084      	sub	sp, #16
 8002dc0:	af00      	add	r7, sp, #0
 8002dc2:	4603      	mov	r3, r0
 8002dc4:	71fb      	strb	r3, [r7, #7]

	int16_t Data;
I2C_Tx_1Byte (I2C3, AddressMPU6050, Register);
 8002dc6:	79fb      	ldrb	r3, [r7, #7]
 8002dc8:	461a      	mov	r2, r3
 8002dca:	2168      	movs	r1, #104	@ 0x68
 8002dcc:	4807      	ldr	r0, [pc, #28]	@ (8002dec <MPU6050_Read+0x30>)
 8002dce:	f7fe fb87 	bl	80014e0 <I2C_Tx_1Byte>
Data = I2C_Rx_1Byte(I2C3, AddressMPU6050);
 8002dd2:	2168      	movs	r1, #104	@ 0x68
 8002dd4:	4805      	ldr	r0, [pc, #20]	@ (8002dec <MPU6050_Read+0x30>)
 8002dd6:	f7fe fbe4 	bl	80015a2 <I2C_Rx_1Byte>
 8002dda:	4603      	mov	r3, r0
 8002ddc:	81fb      	strh	r3, [r7, #14]

//I2C_Tx_2Bytes(I2C3, AddressMPU6050, MPU6050_USER_CTRL, 0x04);
//I2C_Tx_2Bytes(I2C3, AddressMPU6050, MPU6050_FIFO_EN, 0x08);
//I2C_Tx_2Bytes(I2C3, AddressMPU6050, MPU6050_USER_CTRL, 0x40);

return Data;
 8002dde:	f9b7 300e 	ldrsh.w	r3, [r7, #14]
}
 8002de2:	4618      	mov	r0, r3
 8002de4:	3710      	adds	r7, #16
 8002de6:	46bd      	mov	sp, r7
 8002de8:	bd80      	pop	{r7, pc}
 8002dea:	bf00      	nop
 8002dec:	40005c00 	.word	0x40005c00

08002df0 <main>:
/*********FIN DE VARIABLES GLOBALES ************/
CAN_FIFOMailBox_TypeDef *FIFOmailBox0,*FIFOmailBox1;
uint32_t countdown = 10000; // Configura el tiempo del ciclo (10,000 "unidades", ajustable)

int main(void)
{
 8002df0:	b580      	push	{r7, lr}
 8002df2:	b082      	sub	sp, #8
 8002df4:	af02      	add	r7, sp, #8
  // uint32_t caseNumber = 0;  // Inicializar el contador para el caso del s                                                                                 witch


/****************************INICIALIZACION Y CONFIGURACION DE PUERTOS Y PERIFERICOS************************************************/
/**********************************************************************************************************************************/
   Init_Peripheral();
 8002df6:	f000 f909 	bl	800300c <Init_Peripheral>
   Conf_Peripheral();
 8002dfa:	f000 f927 	bl	800304c <Conf_Peripheral>



    I2C_Init(I2C3); //Inicializacion de periferico I2C
 8002dfe:	4873      	ldr	r0, [pc, #460]	@ (8002fcc <main+0x1dc>)
 8002e00:	f7fe fb34 	bl	800146c <I2C_Init>

    USARTx_CONF(USART3, USARTx_BRR_MSI_16MHz, USART3_IRQn, 7); // Configuracion del periferico Uart
 8002e04:	2307      	movs	r3, #7
 8002e06:	2227      	movs	r2, #39	@ 0x27
 8002e08:	f240 6182 	movw	r1, #1666	@ 0x682
 8002e0c:	4870      	ldr	r0, [pc, #448]	@ (8002fd0 <main+0x1e0>)
 8002e0e:	f7fe fd27 	bl	8001860 <USARTx_CONF>
    CANx_Init(CAN1); //Inicializacion del periferico CAN
 8002e12:	4870      	ldr	r0, [pc, #448]	@ (8002fd4 <main+0x1e4>)
 8002e14:	f7fd fe6a 	bl	8000aec <CANx_Init>
	CANx_BitTiming_500Kz(CAN1); //Configuracion del can bit
 8002e18:	486e      	ldr	r0, [pc, #440]	@ (8002fd4 <main+0x1e4>)
 8002e1a:	f7fd fec8 	bl	8000bae <CANx_BitTiming_500Kz>
	CANx_EnFIFO0Ints(CAN1); //interrupcion de la FIFO0
 8002e1e:	486d      	ldr	r0, [pc, #436]	@ (8002fd4 <main+0x1e4>)
 8002e20:	f7fe f891 	bl	8000f46 <CANx_EnFIFO0Ints>
 	CANx_EnFIFO1Ints(CAN1); //Interrupcion de la FIFO1
 8002e24:	486b      	ldr	r0, [pc, #428]	@ (8002fd4 <main+0x1e4>)
 8002e26:	f7fe f87e 	bl	8000f26 <CANx_EnFIFO1Ints>
	NVIC_Enable(CAN1_RX0_IRQn, 5); // Habilitar el vector de interrupcion
 8002e2a:	2105      	movs	r1, #5
 8002e2c:	2014      	movs	r0, #20
 8002e2e:	f7fe fcbb 	bl	80017a8 <NVIC_Enable>
	NVIC_Enable(CAN1_RX1_IRQn, 4);  // Habilitar el vector de interrupcion
 8002e32:	2104      	movs	r1, #4
 8002e34:	2015      	movs	r0, #21
 8002e36:	f7fe fcb7 	bl	80017a8 <NVIC_Enable>
	GPIOC->ODR ^= GPIO_ODR_ODR_13;
 8002e3a:	4b67      	ldr	r3, [pc, #412]	@ (8002fd8 <main+0x1e8>)
 8002e3c:	695b      	ldr	r3, [r3, #20]
 8002e3e:	4a66      	ldr	r2, [pc, #408]	@ (8002fd8 <main+0x1e8>)
 8002e40:	f483 5300 	eor.w	r3, r3, #8192	@ 0x2000
 8002e44:	6153      	str	r3, [r2, #20]
	CLEAR_BIT(CAN1->MCR, CAN_MCR_INRQ);//limpia bandera de modo inicialización
 8002e46:	4b63      	ldr	r3, [pc, #396]	@ (8002fd4 <main+0x1e4>)
 8002e48:	681b      	ldr	r3, [r3, #0]
 8002e4a:	4a62      	ldr	r2, [pc, #392]	@ (8002fd4 <main+0x1e4>)
 8002e4c:	f023 0301 	bic.w	r3, r3, #1
 8002e50:	6013      	str	r3, [r2, #0]
	while(CAN1->MSR & CAN_MSR_INAK) {}; //Esperamos a que el bit CAN_MSR_INAK se limpie ****ENTRA
 8002e52:	bf00      	nop
 8002e54:	4b5f      	ldr	r3, [pc, #380]	@ (8002fd4 <main+0x1e4>)
 8002e56:	685b      	ldr	r3, [r3, #4]
 8002e58:	f003 0301 	and.w	r3, r3, #1
 8002e5c:	2b00      	cmp	r3, #0
 8002e5e:	d1f9      	bne.n	8002e54 <main+0x64>
/****************************Uso de perifericos con librerias propias************************************************/
/**********************************************************************************************************************************/

/*************************CONFIGURACION DE FILTROS DE LAS FIFOS DE RECEPCION****************************/
/*******************************************************************************************************/
    CAN_FilterInit (CAN1, List_mode, Single_32bit, Fifo_0, 0); //CAN1, Mode , Scale, FIFO, Localidad
 8002e60:	2300      	movs	r3, #0
 8002e62:	9300      	str	r3, [sp, #0]
 8002e64:	2300      	movs	r3, #0
 8002e66:	2201      	movs	r2, #1
 8002e68:	2101      	movs	r1, #1
 8002e6a:	485a      	ldr	r0, [pc, #360]	@ (8002fd4 <main+0x1e4>)
 8002e6c:	f7fd fecf 	bl	8000c0e <CAN_FilterInit>
    CAN_SetFilterValue(CAN1, 0x7E8, 0x00, 0);  //CAN1, ID , MSK, Localidad
 8002e70:	2300      	movs	r3, #0
 8002e72:	2200      	movs	r2, #0
 8002e74:	f44f 61fd 	mov.w	r1, #2024	@ 0x7e8
 8002e78:	4856      	ldr	r0, [pc, #344]	@ (8002fd4 <main+0x1e4>)
 8002e7a:	f7fd ff49 	bl	8000d10 <CAN_SetFilterValue>

    CAN_FilterInit (CAN1, List_mode, Single_32bit, Fifo_1, 1); //CAN1, Mode , Scale, FIFO, Localidad
 8002e7e:	2301      	movs	r3, #1
 8002e80:	9300      	str	r3, [sp, #0]
 8002e82:	2301      	movs	r3, #1
 8002e84:	2201      	movs	r2, #1
 8002e86:	2101      	movs	r1, #1
 8002e88:	4852      	ldr	r0, [pc, #328]	@ (8002fd4 <main+0x1e4>)
 8002e8a:	f7fd fec0 	bl	8000c0e <CAN_FilterInit>
    CAN_SetFilterValue(CAN1, 0x0BB, 0x00, 1);  //CAN1, ID , MSK, Localidad
 8002e8e:	2301      	movs	r3, #1
 8002e90:	2200      	movs	r2, #0
 8002e92:	21bb      	movs	r1, #187	@ 0xbb
 8002e94:	484f      	ldr	r0, [pc, #316]	@ (8002fd4 <main+0x1e4>)
 8002e96:	f7fd ff3b 	bl	8000d10 <CAN_SetFilterValue>

    CLEAR_BIT(CAN1->FMR, CAN_FMR_FINIT);
 8002e9a:	4b4e      	ldr	r3, [pc, #312]	@ (8002fd4 <main+0x1e4>)
 8002e9c:	f8d3 3200 	ldr.w	r3, [r3, #512]	@ 0x200
 8002ea0:	4a4c      	ldr	r2, [pc, #304]	@ (8002fd4 <main+0x1e4>)
 8002ea2:	f023 0301 	bic.w	r3, r3, #1
 8002ea6:	f8c2 3200 	str.w	r3, [r2, #512]	@ 0x200


/*************************CONFIGURACION DE FILTROS DE LOS MILEBOX DE TRANSMICION***************************/
/*******************************************************************************************************/

   CAN_MailboxConfig(CAN1, false, 0x7DF, false, 0x0); //CAN1, ExtededID, IDE, RTR, Localidad
 8002eaa:	2300      	movs	r3, #0
 8002eac:	9300      	str	r3, [sp, #0]
 8002eae:	2300      	movs	r3, #0
 8002eb0:	f240 72df 	movw	r2, #2015	@ 0x7df
 8002eb4:	2100      	movs	r1, #0
 8002eb6:	4847      	ldr	r0, [pc, #284]	@ (8002fd4 <main+0x1e4>)
 8002eb8:	f7fd ff7d 	bl	8000db6 <CAN_MailboxConfig>
   CAN_SendData(CAN1, 8, 0x000D0102, 0x0); //CAN1, DLC , DATA, Localidad
 8002ebc:	2300      	movs	r3, #0
 8002ebe:	9300      	str	r3, [sp, #0]
 8002ec0:	4a46      	ldr	r2, [pc, #280]	@ (8002fdc <main+0x1ec>)
 8002ec2:	f04f 0300 	mov.w	r3, #0
 8002ec6:	2108      	movs	r1, #8
 8002ec8:	4842      	ldr	r0, [pc, #264]	@ (8002fd4 <main+0x1e4>)
 8002eca:	f7fd ffcb 	bl	8000e64 <CAN_SendData>

   //CONFIGURAR MAILBOXS
   //frame = (originalMessage & 0x00FFFFFF) | ((uint32_t)Velocidad << 24);

   CAN_MailboxConfig(CAN1, false, 0x7E8, false, 0x1); //CAN1, ExtededID, IDE, RTR, Localidad
 8002ece:	2301      	movs	r3, #1
 8002ed0:	9300      	str	r3, [sp, #0]
 8002ed2:	2300      	movs	r3, #0
 8002ed4:	f44f 62fd 	mov.w	r2, #2024	@ 0x7e8
 8002ed8:	2100      	movs	r1, #0
 8002eda:	483e      	ldr	r0, [pc, #248]	@ (8002fd4 <main+0x1e4>)
 8002edc:	f7fd ff6b 	bl	8000db6 <CAN_MailboxConfig>


/*************************USO DE PANTALLA OLED I2C SSD1306***********************************************/
/*******************************************************************************************************/

   SSD1306_Init(); //Funcion para configurar la pantalla
 8002ee0:	f7fe fd7e 	bl	80019e0 <SSD1306_Init>
   SSD1306_Clear(); //Funcion para limpiar la pantalla
 8002ee4:	f7ff fe3c 	bl	8002b60 <SSD1306_Clear>
   SecuanciaInicio(); //Secuencia de la interfaz de usuario - inicio
 8002ee8:	f000 f9c8 	bl	800327c <SecuanciaInicio>

   I2C_Tx_2Bytes(I2C3, AdreSSD1306, ControlbC, SSD1306_SETPAGE0);
 8002eec:	23b0      	movs	r3, #176	@ 0xb0
 8002eee:	2200      	movs	r2, #0
 8002ef0:	213c      	movs	r1, #60	@ 0x3c
 8002ef2:	4836      	ldr	r0, [pc, #216]	@ (8002fcc <main+0x1dc>)
 8002ef4:	f7fe fbea 	bl	80016cc <I2C_Tx_2Bytes>
   SSD1306_PosCom(0);
 8002ef8:	2000      	movs	r0, #0
 8002efa:	f7ff ff0d 	bl	8002d18 <SSD1306_PosCom>
   SSD1306_WriteString("! TELEMETRY SYSTEM !");
 8002efe:	4838      	ldr	r0, [pc, #224]	@ (8002fe0 <main+0x1f0>)
 8002f00:	f7fe fe0a 	bl	8001b18 <SSD1306_WriteString>

   I2C_Tx_2Bytes(I2C3, AdreSSD1306, ControlbC, SSD1306_SETPAGE3);
 8002f04:	23b3      	movs	r3, #179	@ 0xb3
 8002f06:	2200      	movs	r2, #0
 8002f08:	213c      	movs	r1, #60	@ 0x3c
 8002f0a:	4830      	ldr	r0, [pc, #192]	@ (8002fcc <main+0x1dc>)
 8002f0c:	f7fe fbde 	bl	80016cc <I2C_Tx_2Bytes>
   SSD1306_PosCom(0);
 8002f10:	2000      	movs	r0, #0
 8002f12:	f7ff ff01 	bl	8002d18 <SSD1306_PosCom>
   SSD1306_WriteString(" VELOCIDAD :        ");
 8002f16:	4833      	ldr	r0, [pc, #204]	@ (8002fe4 <main+0x1f4>)
 8002f18:	f7fe fdfe 	bl	8001b18 <SSD1306_WriteString>

   I2C_Tx_2Bytes(I2C3, AdreSSD1306, ControlbC, SSD1306_SETPAGE5);
 8002f1c:	23b5      	movs	r3, #181	@ 0xb5
 8002f1e:	2200      	movs	r2, #0
 8002f20:	213c      	movs	r1, #60	@ 0x3c
 8002f22:	482a      	ldr	r0, [pc, #168]	@ (8002fcc <main+0x1dc>)
 8002f24:	f7fe fbd2 	bl	80016cc <I2C_Tx_2Bytes>
   SSD1306_PosCom(0);
 8002f28:	2000      	movs	r0, #0
 8002f2a:	f7ff fef5 	bl	8002d18 <SSD1306_PosCom>
   SSD1306_WriteString(" RPMS :               ");
 8002f2e:	482e      	ldr	r0, [pc, #184]	@ (8002fe8 <main+0x1f8>)
 8002f30:	f7fe fdf2 	bl	8001b18 <SSD1306_WriteString>

   I2C_Tx_2Bytes(I2C3, AdreSSD1306, ControlbC, SSD1306_SETPAGE7);
 8002f34:	23b7      	movs	r3, #183	@ 0xb7
 8002f36:	2200      	movs	r2, #0
 8002f38:	213c      	movs	r1, #60	@ 0x3c
 8002f3a:	4824      	ldr	r0, [pc, #144]	@ (8002fcc <main+0x1dc>)
 8002f3c:	f7fe fbc6 	bl	80016cc <I2C_Tx_2Bytes>
   SSD1306_PosCom(0);
 8002f40:	2000      	movs	r0, #0
 8002f42:	f7ff fee9 	bl	8002d18 <SSD1306_PosCom>
   SSD1306_WriteString(" GAS :                 ");
 8002f46:	4829      	ldr	r0, [pc, #164]	@ (8002fec <main+0x1fc>)
 8002f48:	f7fe fde6 	bl	8001b18 <SSD1306_WriteString>


/*************************USO DE PANTALLA MPU6050***********************************************/
/*******************************************************************************************************/
   MPU6050_Init(); //INICIALIZAR Y CONFIGURAR REGISTROSD EL MPU6050
 8002f4c:	f7ff ff06 	bl	8002d5c <MPU6050_Init>


    while (!(GPIOC->IDR & GPIO_IDR_IDR_13)) {
 8002f50:	e008      	b.n	8002f64 <main+0x174>
        GPIOB->ODR ^= GPIO_ODR_ODR_13; //Conmuta led de usuario para indicar que esta listo para empezar despues de precionar boton
 8002f52:	4b27      	ldr	r3, [pc, #156]	@ (8002ff0 <main+0x200>)
 8002f54:	695b      	ldr	r3, [r3, #20]
 8002f56:	4a26      	ldr	r2, [pc, #152]	@ (8002ff0 <main+0x200>)
 8002f58:	f483 5300 	eor.w	r3, r3, #8192	@ 0x2000
 8002f5c:	6153      	str	r3, [r2, #20]
	    delay(300000);  // Se queda en este bucle mientras el botón está en 0 (no presionado)
 8002f5e:	4825      	ldr	r0, [pc, #148]	@ (8002ff4 <main+0x204>)
 8002f60:	f000 fa5a 	bl	8003418 <delay>
    while (!(GPIOC->IDR & GPIO_IDR_IDR_13)) {
 8002f64:	4b1c      	ldr	r3, [pc, #112]	@ (8002fd8 <main+0x1e8>)
 8002f66:	691b      	ldr	r3, [r3, #16]
 8002f68:	f403 5300 	and.w	r3, r3, #8192	@ 0x2000
 8002f6c:	2b00      	cmp	r3, #0
 8002f6e:	d0f0      	beq.n	8002f52 <main+0x162>
    }
    delay(500000);  // Se queda en este bucle mientras el botón está en 0 (no presionado)
 8002f70:	4821      	ldr	r0, [pc, #132]	@ (8002ff8 <main+0x208>)
 8002f72:	f000 fa51 	bl	8003418 <delay>
    while (1) {

        while (!(GPIOC->IDR & GPIO_IDR_IDR_13)) {
 8002f76:	e00c      	b.n	8002f92 <main+0x1a2>
           GPIOB->ODR ^= GPIO_ODR_ODR_13; // BLINK LED
 8002f78:	4b1d      	ldr	r3, [pc, #116]	@ (8002ff0 <main+0x200>)
 8002f7a:	695b      	ldr	r3, [r3, #20]
 8002f7c:	4a1c      	ldr	r2, [pc, #112]	@ (8002ff0 <main+0x200>)
 8002f7e:	f483 5300 	eor.w	r3, r3, #8192	@ 0x2000
 8002f82:	6153      	str	r3, [r2, #20]
           MPU6050_Read_Ace_Giro(); //LECTURA DE GIROSCOPIO Y ACELEROMETRO
 8002f84:	f000 f8b4 	bl	80030f0 <MPU6050_Read_Ace_Giro>
           ByteD = (receivedData0_H & 0x00FF0000) >> 16;
           Vel_Km = ByteA;
          // Get_Obdii_Data();
           */

           SSD1306_Refresh();
 8002f88:	f000 faa8 	bl	80034dc <SSD1306_Refresh>
           delay(500000);
 8002f8c:	481a      	ldr	r0, [pc, #104]	@ (8002ff8 <main+0x208>)
 8002f8e:	f000 fa43 	bl	8003418 <delay>
        while (!(GPIOC->IDR & GPIO_IDR_IDR_13)) {
 8002f92:	4b11      	ldr	r3, [pc, #68]	@ (8002fd8 <main+0x1e8>)
 8002f94:	691b      	ldr	r3, [r3, #16]
 8002f96:	f403 5300 	and.w	r3, r3, #8192	@ 0x2000
 8002f9a:	2b00      	cmp	r3, #0
 8002f9c:	d0ec      	beq.n	8002f78 <main+0x188>
                CAN_RequestTransmission(CAN1, 0x1);
                PID = 0x00;
            }
*/
        }
        delay(1000000);
 8002f9e:	4817      	ldr	r0, [pc, #92]	@ (8002ffc <main+0x20c>)
 8002fa0:	f000 fa3a 	bl	8003418 <delay>
        sendStringUARTx(USART3, "AT+CMGF=1\r\n\0");
 8002fa4:	4916      	ldr	r1, [pc, #88]	@ (8003000 <main+0x210>)
 8002fa6:	480a      	ldr	r0, [pc, #40]	@ (8002fd0 <main+0x1e0>)
 8002fa8:	f7fe fcde 	bl	8001968 <sendStringUARTx>
        delay(1000000);
 8002fac:	4813      	ldr	r0, [pc, #76]	@ (8002ffc <main+0x20c>)
 8002fae:	f000 fa33 	bl	8003418 <delay>
        sendStringUARTx(USART3, "AT+QGPS=1\r\n\0");
 8002fb2:	4914      	ldr	r1, [pc, #80]	@ (8003004 <main+0x214>)
 8002fb4:	4806      	ldr	r0, [pc, #24]	@ (8002fd0 <main+0x1e0>)
 8002fb6:	f7fe fcd7 	bl	8001968 <sendStringUARTx>
        delay(1000000);
 8002fba:	4810      	ldr	r0, [pc, #64]	@ (8002ffc <main+0x20c>)
 8002fbc:	f000 fa2c 	bl	8003418 <delay>
        sendStringUARTx(USART3, "AT+QGPSLOC? \r\n\0");
 8002fc0:	4911      	ldr	r1, [pc, #68]	@ (8003008 <main+0x218>)
 8002fc2:	4803      	ldr	r0, [pc, #12]	@ (8002fd0 <main+0x1e0>)
 8002fc4:	f7fe fcd0 	bl	8001968 <sendStringUARTx>
        while (!(GPIOC->IDR & GPIO_IDR_IDR_13)) {
 8002fc8:	e7e3      	b.n	8002f92 <main+0x1a2>
 8002fca:	bf00      	nop
 8002fcc:	40005c00 	.word	0x40005c00
 8002fd0:	40004800 	.word	0x40004800
 8002fd4:	40006400 	.word	0x40006400
 8002fd8:	48000800 	.word	0x48000800
 8002fdc:	000d0102 	.word	0x000d0102
 8002fe0:	08004014 	.word	0x08004014
 8002fe4:	0800402c 	.word	0x0800402c
 8002fe8:	08004044 	.word	0x08004044
 8002fec:	0800405c 	.word	0x0800405c
 8002ff0:	48000400 	.word	0x48000400
 8002ff4:	000493e0 	.word	0x000493e0
 8002ff8:	0007a120 	.word	0x0007a120
 8002ffc:	000f4240 	.word	0x000f4240
 8003000:	08004074 	.word	0x08004074
 8003004:	08004084 	.word	0x08004084
 8003008:	08004094 	.word	0x08004094

0800300c <Init_Peripheral>:
		  I2C_delay(30);*/


 }

void Init_Peripheral(void){
 800300c:	b580      	push	{r7, lr}
 800300e:	af00      	add	r7, sp, #0
	  /*CONFIGURACIÓN DEL RELOJ*/
	  SystCLK_SetMSI(MSI_16MHz); //Configura 16MHz como  reloj
 8003010:	2080      	movs	r0, #128	@ 0x80
 8003012:	f7fe f9d1 	bl	80013b8 <SystCLK_SetMSI>
	  RCC_EnPort(GPIOB);//configura reloj en puerto B Para CANX
 8003016:	4808      	ldr	r0, [pc, #32]	@ (8003038 <Init_Peripheral+0x2c>)
 8003018:	f7fe f976 	bl	8001308 <RCC_EnPort>
	  RCC_EnPort(GPIOC);//configura reloj en puerto C para I2C
 800301c:	4807      	ldr	r0, [pc, #28]	@ (800303c <Init_Peripheral+0x30>)
 800301e:	f7fe f973 	bl	8001308 <RCC_EnPort>
	  RCC_En_I2C(I2C3); // Habilitar reloj al periférico I2C.
 8003022:	4807      	ldr	r0, [pc, #28]	@ (8003040 <Init_Peripheral+0x34>)
 8003024:	f7fe f9fe 	bl	8001424 <RCC_En_I2C>
	  RCC_En_CANx(CAN1);// Habilitar reloj al periferico CAN
 8003028:	4806      	ldr	r0, [pc, #24]	@ (8003044 <Init_Peripheral+0x38>)
 800302a:	f7fd fd47 	bl	8000abc <RCC_En_CANx>
	  RCC_En_USARTx(USART3);
 800302e:	4806      	ldr	r0, [pc, #24]	@ (8003048 <Init_Peripheral+0x3c>)
 8003030:	f7fe fbe6 	bl	8001800 <RCC_En_USARTx>
}
 8003034:	bf00      	nop
 8003036:	bd80      	pop	{r7, pc}
 8003038:	48000400 	.word	0x48000400
 800303c:	48000800 	.word	0x48000800
 8003040:	40005c00 	.word	0x40005c00
 8003044:	40006400 	.word	0x40006400
 8003048:	40004800 	.word	0x40004800

0800304c <Conf_Peripheral>:

void Conf_Peripheral(void){
 800304c:	b580      	push	{r7, lr}
 800304e:	b082      	sub	sp, #8
 8003050:	af02      	add	r7, sp, #8

	 //Configuración de Led y boton de usuario
	//  GPIOx_InitIO(GPIOC, 2, GPIO_MODER_INPUT, false); //Botón de Usuario de Liese-duino
	 // GPIOx_InitIO(GPIOC, 13, GPIO_MODER_OUTPUT, false); //Led de usuario de Liese-duino

	  GPIOx_InitIO(GPIOC, 13, GPIO_MODER_INPUT, false); //Botón de Usuario de nucleo
 8003052:	2300      	movs	r3, #0
 8003054:	2200      	movs	r2, #0
 8003056:	210d      	movs	r1, #13
 8003058:	4823      	ldr	r0, [pc, #140]	@ (80030e8 <Conf_Peripheral+0x9c>)
 800305a:	f7fe f8ff 	bl	800125c <GPIOx_InitIO>
	 GPIOx_InitIO(GPIOB, 13, GPIO_MODER_OUTPUT, false); //Led de usuario de nucleo
 800305e:	2300      	movs	r3, #0
 8003060:	2201      	movs	r2, #1
 8003062:	210d      	movs	r1, #13
 8003064:	4821      	ldr	r0, [pc, #132]	@ (80030ec <Conf_Peripheral+0xa0>)
 8003066:	f7fe f8f9 	bl	800125c <GPIOx_InitIO>


	  GPIOx_InitAF(GPIOC, 0, 1, 2, 4, false); /*Puerto C / PIN 0 / Configura Open Drain / High speed /  Función alterna 4 - I2C3_SCL / Habilita Resistencia de Pull -Up  */
 800306a:	2300      	movs	r3, #0
 800306c:	9301      	str	r3, [sp, #4]
 800306e:	2304      	movs	r3, #4
 8003070:	9300      	str	r3, [sp, #0]
 8003072:	2302      	movs	r3, #2
 8003074:	2201      	movs	r2, #1
 8003076:	2100      	movs	r1, #0
 8003078:	481b      	ldr	r0, [pc, #108]	@ (80030e8 <Conf_Peripheral+0x9c>)
 800307a:	f7fe f880 	bl	800117e <GPIOx_InitAF>
	  GPIOx_InitAF(GPIOC, 1, 1, 2, 4, false); /*Puerto C / PIN 1 / Configura Open Drain / High speed /  Función alterna 4 - I2C3_SDA / Habilita Resistencia de Pull -Up  */
 800307e:	2300      	movs	r3, #0
 8003080:	9301      	str	r3, [sp, #4]
 8003082:	2304      	movs	r3, #4
 8003084:	9300      	str	r3, [sp, #0]
 8003086:	2302      	movs	r3, #2
 8003088:	2201      	movs	r2, #1
 800308a:	2101      	movs	r1, #1
 800308c:	4816      	ldr	r0, [pc, #88]	@ (80030e8 <Conf_Peripheral+0x9c>)
 800308e:	f7fe f876 	bl	800117e <GPIOx_InitAF>


	  //inicializa funcion alterna para CAN1 RX en pin B8
	  GPIOx_InitAF(GPIOB, 8, GPIO_OTYPER_PP, GPIO_OSPEEDR_HS, 9 , false); /*Puerto B / PIN 8 / Configura Push Pull / High speed /  Función alterna 9 - CAN1_RX / Habilita Resistencia de Pull -Up  */
 8003092:	2300      	movs	r3, #0
 8003094:	9301      	str	r3, [sp, #4]
 8003096:	2309      	movs	r3, #9
 8003098:	9300      	str	r3, [sp, #0]
 800309a:	2303      	movs	r3, #3
 800309c:	2200      	movs	r2, #0
 800309e:	2108      	movs	r1, #8
 80030a0:	4812      	ldr	r0, [pc, #72]	@ (80030ec <Conf_Peripheral+0xa0>)
 80030a2:	f7fe f86c 	bl	800117e <GPIOx_InitAF>
	  //inicializa funcion alterna para CAN1 TX en pin B9
	  GPIOx_InitAF(GPIOB, 9, GPIO_OTYPER_PP, GPIO_OSPEEDR_HS, 9 , false); /*Puerto B / PIN 9 / Configura Push Pull / High speed /  Función alterna 9 - CAN1_TX / Habilita Resistencia de Pull -Up  */
 80030a6:	2300      	movs	r3, #0
 80030a8:	9301      	str	r3, [sp, #4]
 80030aa:	2309      	movs	r3, #9
 80030ac:	9300      	str	r3, [sp, #0]
 80030ae:	2303      	movs	r3, #3
 80030b0:	2200      	movs	r2, #0
 80030b2:	2109      	movs	r1, #9
 80030b4:	480d      	ldr	r0, [pc, #52]	@ (80030ec <Conf_Peripheral+0xa0>)
 80030b6:	f7fe f862 	bl	800117e <GPIOx_InitAF>

	  // Inicializa función alterna para USART3
	  GPIOx_InitAF(GPIOB, 10, GPIO_OTYPER_PP, 0, 7, false); // USART3_TX en PB10
 80030ba:	2300      	movs	r3, #0
 80030bc:	9301      	str	r3, [sp, #4]
 80030be:	2307      	movs	r3, #7
 80030c0:	9300      	str	r3, [sp, #0]
 80030c2:	2300      	movs	r3, #0
 80030c4:	2200      	movs	r2, #0
 80030c6:	210a      	movs	r1, #10
 80030c8:	4808      	ldr	r0, [pc, #32]	@ (80030ec <Conf_Peripheral+0xa0>)
 80030ca:	f7fe f858 	bl	800117e <GPIOx_InitAF>
	  GPIOx_InitAF(GPIOB, 11, GPIO_OTYPER_PP, 0, 7, true);  // USART3_RX en PB11 con Pull-Up
 80030ce:	2301      	movs	r3, #1
 80030d0:	9301      	str	r3, [sp, #4]
 80030d2:	2307      	movs	r3, #7
 80030d4:	9300      	str	r3, [sp, #0]
 80030d6:	2300      	movs	r3, #0
 80030d8:	2200      	movs	r2, #0
 80030da:	210b      	movs	r1, #11
 80030dc:	4803      	ldr	r0, [pc, #12]	@ (80030ec <Conf_Peripheral+0xa0>)
 80030de:	f7fe f84e 	bl	800117e <GPIOx_InitAF>
}
 80030e2:	bf00      	nop
 80030e4:	46bd      	mov	sp, r7
 80030e6:	bd80      	pop	{r7, pc}
 80030e8:	48000800 	.word	0x48000800
 80030ec:	48000400 	.word	0x48000400

080030f0 <MPU6050_Read_Ace_Giro>:

void MPU6050_Read_Ace_Giro(void){
 80030f0:	b580      	push	{r7, lr}
 80030f2:	af00      	add	r7, sp, #0
	  AC_X =  MPU6050_Read(MPU6050_ACCEL_XOUT_H);
 80030f4:	203b      	movs	r0, #59	@ 0x3b
 80030f6:	f7ff fe61 	bl	8002dbc <MPU6050_Read>
 80030fa:	4603      	mov	r3, r0
 80030fc:	461a      	mov	r2, r3
 80030fe:	4b52      	ldr	r3, [pc, #328]	@ (8003248 <MPU6050_Read_Ace_Giro+0x158>)
 8003100:	801a      	strh	r2, [r3, #0]
	  AX=(AC_X/16384.0);
 8003102:	4b51      	ldr	r3, [pc, #324]	@ (8003248 <MPU6050_Read_Ace_Giro+0x158>)
 8003104:	f9b3 3000 	ldrsh.w	r3, [r3]
 8003108:	4618      	mov	r0, r3
 800310a:	f7fd fa0b 	bl	8000524 <__aeabi_i2d>
 800310e:	f04f 0200 	mov.w	r2, #0
 8003112:	4b4e      	ldr	r3, [pc, #312]	@ (800324c <MPU6050_Read_Ace_Giro+0x15c>)
 8003114:	f7fd fb9a 	bl	800084c <__aeabi_ddiv>
 8003118:	4602      	mov	r2, r0
 800311a:	460b      	mov	r3, r1
 800311c:	4610      	mov	r0, r2
 800311e:	4619      	mov	r1, r3
 8003120:	f7fd fc7c 	bl	8000a1c <__aeabi_d2f>
 8003124:	4603      	mov	r3, r0
 8003126:	4a4a      	ldr	r2, [pc, #296]	@ (8003250 <MPU6050_Read_Ace_Giro+0x160>)
 8003128:	6013      	str	r3, [r2, #0]
	  AC_Y =  MPU6050_Read(MPU6050_ACCEL_YOUT_H);
 800312a:	203d      	movs	r0, #61	@ 0x3d
 800312c:	f7ff fe46 	bl	8002dbc <MPU6050_Read>
 8003130:	4603      	mov	r3, r0
 8003132:	461a      	mov	r2, r3
 8003134:	4b47      	ldr	r3, [pc, #284]	@ (8003254 <MPU6050_Read_Ace_Giro+0x164>)
 8003136:	801a      	strh	r2, [r3, #0]
	  AY=(AC_Y/16384.0);
 8003138:	4b46      	ldr	r3, [pc, #280]	@ (8003254 <MPU6050_Read_Ace_Giro+0x164>)
 800313a:	f9b3 3000 	ldrsh.w	r3, [r3]
 800313e:	4618      	mov	r0, r3
 8003140:	f7fd f9f0 	bl	8000524 <__aeabi_i2d>
 8003144:	f04f 0200 	mov.w	r2, #0
 8003148:	4b40      	ldr	r3, [pc, #256]	@ (800324c <MPU6050_Read_Ace_Giro+0x15c>)
 800314a:	f7fd fb7f 	bl	800084c <__aeabi_ddiv>
 800314e:	4602      	mov	r2, r0
 8003150:	460b      	mov	r3, r1
 8003152:	4610      	mov	r0, r2
 8003154:	4619      	mov	r1, r3
 8003156:	f7fd fc61 	bl	8000a1c <__aeabi_d2f>
 800315a:	4603      	mov	r3, r0
 800315c:	4a3e      	ldr	r2, [pc, #248]	@ (8003258 <MPU6050_Read_Ace_Giro+0x168>)
 800315e:	6013      	str	r3, [r2, #0]
	  AC_Z =  MPU6050_Read(MPU6050_ACCEL_ZOUT_H);
 8003160:	203f      	movs	r0, #63	@ 0x3f
 8003162:	f7ff fe2b 	bl	8002dbc <MPU6050_Read>
 8003166:	4603      	mov	r3, r0
 8003168:	461a      	mov	r2, r3
 800316a:	4b3c      	ldr	r3, [pc, #240]	@ (800325c <MPU6050_Read_Ace_Giro+0x16c>)
 800316c:	801a      	strh	r2, [r3, #0]
	  AZ=(AC_Z/16384.0);
 800316e:	4b3b      	ldr	r3, [pc, #236]	@ (800325c <MPU6050_Read_Ace_Giro+0x16c>)
 8003170:	f9b3 3000 	ldrsh.w	r3, [r3]
 8003174:	4618      	mov	r0, r3
 8003176:	f7fd f9d5 	bl	8000524 <__aeabi_i2d>
 800317a:	f04f 0200 	mov.w	r2, #0
 800317e:	4b33      	ldr	r3, [pc, #204]	@ (800324c <MPU6050_Read_Ace_Giro+0x15c>)
 8003180:	f7fd fb64 	bl	800084c <__aeabi_ddiv>
 8003184:	4602      	mov	r2, r0
 8003186:	460b      	mov	r3, r1
 8003188:	4610      	mov	r0, r2
 800318a:	4619      	mov	r1, r3
 800318c:	f7fd fc46 	bl	8000a1c <__aeabi_d2f>
 8003190:	4603      	mov	r3, r0
 8003192:	4a33      	ldr	r2, [pc, #204]	@ (8003260 <MPU6050_Read_Ace_Giro+0x170>)
 8003194:	6013      	str	r3, [r2, #0]
	  G_X =  MPU6050_Read(MPU6050_GYRO_XOUT_H);
 8003196:	2043      	movs	r0, #67	@ 0x43
 8003198:	f7ff fe10 	bl	8002dbc <MPU6050_Read>
 800319c:	4603      	mov	r3, r0
 800319e:	461a      	mov	r2, r3
 80031a0:	4b30      	ldr	r3, [pc, #192]	@ (8003264 <MPU6050_Read_Ace_Giro+0x174>)
 80031a2:	801a      	strh	r2, [r3, #0]
	  GX=(G_X/131.0);
 80031a4:	4b2f      	ldr	r3, [pc, #188]	@ (8003264 <MPU6050_Read_Ace_Giro+0x174>)
 80031a6:	f9b3 3000 	ldrsh.w	r3, [r3]
 80031aa:	4618      	mov	r0, r3
 80031ac:	f7fd f9ba 	bl	8000524 <__aeabi_i2d>
 80031b0:	a323      	add	r3, pc, #140	@ (adr r3, 8003240 <MPU6050_Read_Ace_Giro+0x150>)
 80031b2:	e9d3 2300 	ldrd	r2, r3, [r3]
 80031b6:	f7fd fb49 	bl	800084c <__aeabi_ddiv>
 80031ba:	4602      	mov	r2, r0
 80031bc:	460b      	mov	r3, r1
 80031be:	4610      	mov	r0, r2
 80031c0:	4619      	mov	r1, r3
 80031c2:	f7fd fc2b 	bl	8000a1c <__aeabi_d2f>
 80031c6:	4603      	mov	r3, r0
 80031c8:	4a27      	ldr	r2, [pc, #156]	@ (8003268 <MPU6050_Read_Ace_Giro+0x178>)
 80031ca:	6013      	str	r3, [r2, #0]
	  G_Y =  MPU6050_Read(MPU6050_GYRO_YOUT_H);
 80031cc:	2045      	movs	r0, #69	@ 0x45
 80031ce:	f7ff fdf5 	bl	8002dbc <MPU6050_Read>
 80031d2:	4603      	mov	r3, r0
 80031d4:	461a      	mov	r2, r3
 80031d6:	4b25      	ldr	r3, [pc, #148]	@ (800326c <MPU6050_Read_Ace_Giro+0x17c>)
 80031d8:	801a      	strh	r2, [r3, #0]
	  GY=(G_Y/131.0);
 80031da:	4b24      	ldr	r3, [pc, #144]	@ (800326c <MPU6050_Read_Ace_Giro+0x17c>)
 80031dc:	f9b3 3000 	ldrsh.w	r3, [r3]
 80031e0:	4618      	mov	r0, r3
 80031e2:	f7fd f99f 	bl	8000524 <__aeabi_i2d>
 80031e6:	a316      	add	r3, pc, #88	@ (adr r3, 8003240 <MPU6050_Read_Ace_Giro+0x150>)
 80031e8:	e9d3 2300 	ldrd	r2, r3, [r3]
 80031ec:	f7fd fb2e 	bl	800084c <__aeabi_ddiv>
 80031f0:	4602      	mov	r2, r0
 80031f2:	460b      	mov	r3, r1
 80031f4:	4610      	mov	r0, r2
 80031f6:	4619      	mov	r1, r3
 80031f8:	f7fd fc10 	bl	8000a1c <__aeabi_d2f>
 80031fc:	4603      	mov	r3, r0
 80031fe:	4a1c      	ldr	r2, [pc, #112]	@ (8003270 <MPU6050_Read_Ace_Giro+0x180>)
 8003200:	6013      	str	r3, [r2, #0]
	  G_Z = MPU6050_Read(MPU6050_GYRO_ZOUT_H);
 8003202:	2047      	movs	r0, #71	@ 0x47
 8003204:	f7ff fdda 	bl	8002dbc <MPU6050_Read>
 8003208:	4603      	mov	r3, r0
 800320a:	461a      	mov	r2, r3
 800320c:	4b19      	ldr	r3, [pc, #100]	@ (8003274 <MPU6050_Read_Ace_Giro+0x184>)
 800320e:	801a      	strh	r2, [r3, #0]
	  GZ=(G_Z/131.0);
 8003210:	4b18      	ldr	r3, [pc, #96]	@ (8003274 <MPU6050_Read_Ace_Giro+0x184>)
 8003212:	f9b3 3000 	ldrsh.w	r3, [r3]
 8003216:	4618      	mov	r0, r3
 8003218:	f7fd f984 	bl	8000524 <__aeabi_i2d>
 800321c:	a308      	add	r3, pc, #32	@ (adr r3, 8003240 <MPU6050_Read_Ace_Giro+0x150>)
 800321e:	e9d3 2300 	ldrd	r2, r3, [r3]
 8003222:	f7fd fb13 	bl	800084c <__aeabi_ddiv>
 8003226:	4602      	mov	r2, r0
 8003228:	460b      	mov	r3, r1
 800322a:	4610      	mov	r0, r2
 800322c:	4619      	mov	r1, r3
 800322e:	f7fd fbf5 	bl	8000a1c <__aeabi_d2f>
 8003232:	4603      	mov	r3, r0
 8003234:	4a10      	ldr	r2, [pc, #64]	@ (8003278 <MPU6050_Read_Ace_Giro+0x188>)
 8003236:	6013      	str	r3, [r2, #0]
}
 8003238:	bf00      	nop
 800323a:	bd80      	pop	{r7, pc}
 800323c:	f3af 8000 	nop.w
 8003240:	00000000 	.word	0x00000000
 8003244:	40606000 	.word	0x40606000
 8003248:	200001d8 	.word	0x200001d8
 800324c:	40d00000 	.word	0x40d00000
 8003250:	200001e0 	.word	0x200001e0
 8003254:	200001da 	.word	0x200001da
 8003258:	200001e4 	.word	0x200001e4
 800325c:	200001dc 	.word	0x200001dc
 8003260:	200001e8 	.word	0x200001e8
 8003264:	200001ec 	.word	0x200001ec
 8003268:	200001f4 	.word	0x200001f4
 800326c:	200001ee 	.word	0x200001ee
 8003270:	200001f8 	.word	0x200001f8
 8003274:	200001f0 	.word	0x200001f0
 8003278:	200001fc 	.word	0x200001fc

0800327c <SecuanciaInicio>:

void SecuanciaInicio(void){
 800327c:	b580      	push	{r7, lr}
 800327e:	af00      	add	r7, sp, #0
	  I2C_Tx_2Bytes(I2C3, AdreSSD1306, ControlbC, 0X2E); //Escrollin off
 8003280:	232e      	movs	r3, #46	@ 0x2e
 8003282:	2200      	movs	r2, #0
 8003284:	213c      	movs	r1, #60	@ 0x3c
 8003286:	485c      	ldr	r0, [pc, #368]	@ (80033f8 <SecuanciaInicio+0x17c>)
 8003288:	f7fe fa20 	bl	80016cc <I2C_Tx_2Bytes>
	  I2C_Tx_2Bytes(I2C3, AdreSSD1306, ControlbC, 0xA5);
 800328c:	23a5      	movs	r3, #165	@ 0xa5
 800328e:	2200      	movs	r2, #0
 8003290:	213c      	movs	r1, #60	@ 0x3c
 8003292:	4859      	ldr	r0, [pc, #356]	@ (80033f8 <SecuanciaInicio+0x17c>)
 8003294:	f7fe fa1a 	bl	80016cc <I2C_Tx_2Bytes>
	  I2C_delay(1000000);
 8003298:	4858      	ldr	r0, [pc, #352]	@ (80033fc <SecuanciaInicio+0x180>)
 800329a:	f7fe f8b1 	bl	8001400 <I2C_delay>
	 // GPIOC->ODR ^= 0x00002000;
	  I2C_Tx_2Bytes(I2C3, AdreSSD1306, ControlbC, 0xA4);
 800329e:	23a4      	movs	r3, #164	@ 0xa4
 80032a0:	2200      	movs	r2, #0
 80032a2:	213c      	movs	r1, #60	@ 0x3c
 80032a4:	4854      	ldr	r0, [pc, #336]	@ (80033f8 <SecuanciaInicio+0x17c>)
 80032a6:	f7fe fa11 	bl	80016cc <I2C_Tx_2Bytes>
	  I2C_delay(1000000);
 80032aa:	4854      	ldr	r0, [pc, #336]	@ (80033fc <SecuanciaInicio+0x180>)
 80032ac:	f7fe f8a8 	bl	8001400 <I2C_delay>
	//  GPIOC->ODR ^= 0x00002000;
	  I2C_Tx_2Bytes(I2C3, AdreSSD1306, ControlbC, 0xA5);
 80032b0:	23a5      	movs	r3, #165	@ 0xa5
 80032b2:	2200      	movs	r2, #0
 80032b4:	213c      	movs	r1, #60	@ 0x3c
 80032b6:	4850      	ldr	r0, [pc, #320]	@ (80033f8 <SecuanciaInicio+0x17c>)
 80032b8:	f7fe fa08 	bl	80016cc <I2C_Tx_2Bytes>
	  I2C_delay(1000000);
 80032bc:	484f      	ldr	r0, [pc, #316]	@ (80033fc <SecuanciaInicio+0x180>)
 80032be:	f7fe f89f 	bl	8001400 <I2C_delay>
	//  GPIOC->ODR ^= 0x00002000;
	  I2C_Tx_2Bytes(I2C3, AdreSSD1306, ControlbC, 0xA4);
 80032c2:	23a4      	movs	r3, #164	@ 0xa4
 80032c4:	2200      	movs	r2, #0
 80032c6:	213c      	movs	r1, #60	@ 0x3c
 80032c8:	484b      	ldr	r0, [pc, #300]	@ (80033f8 <SecuanciaInicio+0x17c>)
 80032ca:	f7fe f9ff 	bl	80016cc <I2C_Tx_2Bytes>
	  I2C_delay(1000000);
 80032ce:	484b      	ldr	r0, [pc, #300]	@ (80033fc <SecuanciaInicio+0x180>)
 80032d0:	f7fe f896 	bl	8001400 <I2C_delay>
	//  GPIOC->ODR ^= 0x00002000;
	  I2C_Tx_2Bytes(I2C3, AdreSSD1306, ControlbC, 0xA5);
 80032d4:	23a5      	movs	r3, #165	@ 0xa5
 80032d6:	2200      	movs	r2, #0
 80032d8:	213c      	movs	r1, #60	@ 0x3c
 80032da:	4847      	ldr	r0, [pc, #284]	@ (80033f8 <SecuanciaInicio+0x17c>)
 80032dc:	f7fe f9f6 	bl	80016cc <I2C_Tx_2Bytes>
	  I2C_delay(1000000);
 80032e0:	4846      	ldr	r0, [pc, #280]	@ (80033fc <SecuanciaInicio+0x180>)
 80032e2:	f7fe f88d 	bl	8001400 <I2C_delay>
	//  GPIOC->ODR ^= 0x00002000;
	  I2C_Tx_2Bytes(I2C3, AdreSSD1306, ControlbC, 0xA4);
 80032e6:	23a4      	movs	r3, #164	@ 0xa4
 80032e8:	2200      	movs	r2, #0
 80032ea:	213c      	movs	r1, #60	@ 0x3c
 80032ec:	4842      	ldr	r0, [pc, #264]	@ (80033f8 <SecuanciaInicio+0x17c>)
 80032ee:	f7fe f9ed 	bl	80016cc <I2C_Tx_2Bytes>
	  I2C_delay(1000000);
 80032f2:	4842      	ldr	r0, [pc, #264]	@ (80033fc <SecuanciaInicio+0x180>)
 80032f4:	f7fe f884 	bl	8001400 <I2C_delay>
	//  GPIOC->ODR ^= 0x00002000;
	  I2C_Tx_2Bytes(I2C3, AdreSSD1306, ControlbC, SSD1306_SETPAGE1);
 80032f8:	23b1      	movs	r3, #177	@ 0xb1
 80032fa:	2200      	movs	r2, #0
 80032fc:	213c      	movs	r1, #60	@ 0x3c
 80032fe:	483e      	ldr	r0, [pc, #248]	@ (80033f8 <SecuanciaInicio+0x17c>)
 8003300:	f7fe f9e4 	bl	80016cc <I2C_Tx_2Bytes>
	  SSD1306_PosCom(0);
 8003304:	2000      	movs	r0, #0
 8003306:	f7ff fd07 	bl	8002d18 <SSD1306_PosCom>
	  SSD1306_WriteString("  ! LIESE LAB 2024 ! ");
 800330a:	483d      	ldr	r0, [pc, #244]	@ (8003400 <SecuanciaInicio+0x184>)
 800330c:	f7fe fc04 	bl	8001b18 <SSD1306_WriteString>
	  I2C_delay(2000000);
 8003310:	483c      	ldr	r0, [pc, #240]	@ (8003404 <SecuanciaInicio+0x188>)
 8003312:	f7fe f875 	bl	8001400 <I2C_delay>
	  I2C_Tx_2Bytes(I2C3, AdreSSD1306, ControlbC, SSD1306_SETPAGE3);
 8003316:	23b3      	movs	r3, #179	@ 0xb3
 8003318:	2200      	movs	r2, #0
 800331a:	213c      	movs	r1, #60	@ 0x3c
 800331c:	4836      	ldr	r0, [pc, #216]	@ (80033f8 <SecuanciaInicio+0x17c>)
 800331e:	f7fe f9d5 	bl	80016cc <I2C_Tx_2Bytes>
	  SSD1306_PosCom(0);
 8003322:	2000      	movs	r0, #0
 8003324:	f7ff fcf8 	bl	8002d18 <SSD1306_PosCom>
	  SSD1306_WriteString("                                ");
 8003328:	4837      	ldr	r0, [pc, #220]	@ (8003408 <SecuanciaInicio+0x18c>)
 800332a:	f7fe fbf5 	bl	8001b18 <SSD1306_WriteString>
	  I2C_Tx_2Bytes(I2C3, AdreSSD1306, ControlbC, SSD1306_SETPAGE3);
 800332e:	23b3      	movs	r3, #179	@ 0xb3
 8003330:	2200      	movs	r2, #0
 8003332:	213c      	movs	r1, #60	@ 0x3c
 8003334:	4830      	ldr	r0, [pc, #192]	@ (80033f8 <SecuanciaInicio+0x17c>)
 8003336:	f7fe f9c9 	bl	80016cc <I2C_Tx_2Bytes>
	  SSD1306_PosCom(0);
 800333a:	2000      	movs	r0, #0
 800333c:	f7ff fcec 	bl	8002d18 <SSD1306_PosCom>
	  SSD1306_WriteString("! TELEMETRY SYSTEM !");
 8003340:	4832      	ldr	r0, [pc, #200]	@ (800340c <SecuanciaInicio+0x190>)
 8003342:	f7fe fbe9 	bl	8001b18 <SSD1306_WriteString>
	  I2C_delay(2000000);
 8003346:	482f      	ldr	r0, [pc, #188]	@ (8003404 <SecuanciaInicio+0x188>)
 8003348:	f7fe f85a 	bl	8001400 <I2C_delay>
	  I2C_Tx_2Bytes(I2C3, AdreSSD1306, ControlbC, SSD1306_SETPAGE5);
 800334c:	23b5      	movs	r3, #181	@ 0xb5
 800334e:	2200      	movs	r2, #0
 8003350:	213c      	movs	r1, #60	@ 0x3c
 8003352:	4829      	ldr	r0, [pc, #164]	@ (80033f8 <SecuanciaInicio+0x17c>)
 8003354:	f7fe f9ba 	bl	80016cc <I2C_Tx_2Bytes>
	  SSD1306_PosCom(0);
 8003358:	2000      	movs	r0, #0
 800335a:	f7ff fcdd 	bl	8002d18 <SSD1306_PosCom>
	  SSD1306_WriteString("                                ");
 800335e:	482a      	ldr	r0, [pc, #168]	@ (8003408 <SecuanciaInicio+0x18c>)
 8003360:	f7fe fbda 	bl	8001b18 <SSD1306_WriteString>
	  I2C_Tx_2Bytes(I2C3, AdreSSD1306, ControlbC, SSD1306_SETPAGE5);
 8003364:	23b5      	movs	r3, #181	@ 0xb5
 8003366:	2200      	movs	r2, #0
 8003368:	213c      	movs	r1, #60	@ 0x3c
 800336a:	4823      	ldr	r0, [pc, #140]	@ (80033f8 <SecuanciaInicio+0x17c>)
 800336c:	f7fe f9ae 	bl	80016cc <I2C_Tx_2Bytes>
	  SSD1306_PosCom(0);
 8003370:	2000      	movs	r0, #0
 8003372:	f7ff fcd1 	bl	8002d18 <SSD1306_PosCom>
	  SSD1306_WriteString("  ! SCANNER OBDII ! ");
 8003376:	4826      	ldr	r0, [pc, #152]	@ (8003410 <SecuanciaInicio+0x194>)
 8003378:	f7fe fbce 	bl	8001b18 <SSD1306_WriteString>
	  I2C_delay(2500000);
 800337c:	4825      	ldr	r0, [pc, #148]	@ (8003414 <SecuanciaInicio+0x198>)
 800337e:	f7fe f83f 	bl	8001400 <I2C_delay>
	  I2C_Tx_2Bytes(I2C3, AdreSSD1306, ControlbC, 0xA7);  // Set normal display mode (A6 = normal, A7 = inverted)
 8003382:	23a7      	movs	r3, #167	@ 0xa7
 8003384:	2200      	movs	r2, #0
 8003386:	213c      	movs	r1, #60	@ 0x3c
 8003388:	481b      	ldr	r0, [pc, #108]	@ (80033f8 <SecuanciaInicio+0x17c>)
 800338a:	f7fe f99f 	bl	80016cc <I2C_Tx_2Bytes>
	  I2C_delay(1000000);
 800338e:	481b      	ldr	r0, [pc, #108]	@ (80033fc <SecuanciaInicio+0x180>)
 8003390:	f7fe f836 	bl	8001400 <I2C_delay>
	  I2C_Tx_2Bytes(I2C3, AdreSSD1306, ControlbC, 0xA6);  // Set normal display mode (A6 = normal, A7 = inverted)
 8003394:	23a6      	movs	r3, #166	@ 0xa6
 8003396:	2200      	movs	r2, #0
 8003398:	213c      	movs	r1, #60	@ 0x3c
 800339a:	4817      	ldr	r0, [pc, #92]	@ (80033f8 <SecuanciaInicio+0x17c>)
 800339c:	f7fe f996 	bl	80016cc <I2C_Tx_2Bytes>
	  I2C_delay(1000000);
 80033a0:	4816      	ldr	r0, [pc, #88]	@ (80033fc <SecuanciaInicio+0x180>)
 80033a2:	f7fe f82d 	bl	8001400 <I2C_delay>
	  I2C_Tx_2Bytes(I2C3, AdreSSD1306, ControlbC, 0xA7);  // Set normal display mode (A6 = normal, A7 = inverted)
 80033a6:	23a7      	movs	r3, #167	@ 0xa7
 80033a8:	2200      	movs	r2, #0
 80033aa:	213c      	movs	r1, #60	@ 0x3c
 80033ac:	4812      	ldr	r0, [pc, #72]	@ (80033f8 <SecuanciaInicio+0x17c>)
 80033ae:	f7fe f98d 	bl	80016cc <I2C_Tx_2Bytes>
	  I2C_delay(1000000);
 80033b2:	4812      	ldr	r0, [pc, #72]	@ (80033fc <SecuanciaInicio+0x180>)
 80033b4:	f7fe f824 	bl	8001400 <I2C_delay>
	  I2C_Tx_2Bytes(I2C3, AdreSSD1306, ControlbC, 0xA6);  // Set normal display mode (A6 = normal, A7 = inverted)
 80033b8:	23a6      	movs	r3, #166	@ 0xa6
 80033ba:	2200      	movs	r2, #0
 80033bc:	213c      	movs	r1, #60	@ 0x3c
 80033be:	480e      	ldr	r0, [pc, #56]	@ (80033f8 <SecuanciaInicio+0x17c>)
 80033c0:	f7fe f984 	bl	80016cc <I2C_Tx_2Bytes>
	  I2C_delay(1000000);
 80033c4:	480d      	ldr	r0, [pc, #52]	@ (80033fc <SecuanciaInicio+0x180>)
 80033c6:	f7fe f81b 	bl	8001400 <I2C_delay>
	  I2C_Tx_2Bytes(I2C3, AdreSSD1306, ControlbC, 0xA7);  // Set normal display mode (A6 = normal, A7 = inverted)
 80033ca:	23a7      	movs	r3, #167	@ 0xa7
 80033cc:	2200      	movs	r2, #0
 80033ce:	213c      	movs	r1, #60	@ 0x3c
 80033d0:	4809      	ldr	r0, [pc, #36]	@ (80033f8 <SecuanciaInicio+0x17c>)
 80033d2:	f7fe f97b 	bl	80016cc <I2C_Tx_2Bytes>
	  I2C_delay(1000000);
 80033d6:	4809      	ldr	r0, [pc, #36]	@ (80033fc <SecuanciaInicio+0x180>)
 80033d8:	f7fe f812 	bl	8001400 <I2C_delay>
	  I2C_Tx_2Bytes(I2C3, AdreSSD1306, ControlbC, 0xA6);  // Set normal display mode (A6 = normal, A7 = inverted)
 80033dc:	23a6      	movs	r3, #166	@ 0xa6
 80033de:	2200      	movs	r2, #0
 80033e0:	213c      	movs	r1, #60	@ 0x3c
 80033e2:	4805      	ldr	r0, [pc, #20]	@ (80033f8 <SecuanciaInicio+0x17c>)
 80033e4:	f7fe f972 	bl	80016cc <I2C_Tx_2Bytes>
	  I2C_delay(1000000);
 80033e8:	4804      	ldr	r0, [pc, #16]	@ (80033fc <SecuanciaInicio+0x180>)
 80033ea:	f7fe f809 	bl	8001400 <I2C_delay>
	  SSD1306_Clear();
 80033ee:	f7ff fbb7 	bl	8002b60 <SSD1306_Clear>
}
 80033f2:	bf00      	nop
 80033f4:	bd80      	pop	{r7, pc}
 80033f6:	bf00      	nop
 80033f8:	40005c00 	.word	0x40005c00
 80033fc:	000f4240 	.word	0x000f4240
 8003400:	080040a4 	.word	0x080040a4
 8003404:	001e8480 	.word	0x001e8480
 8003408:	080040bc 	.word	0x080040bc
 800340c:	08004014 	.word	0x08004014
 8003410:	080040e0 	.word	0x080040e0
 8003414:	002625a0 	.word	0x002625a0

08003418 <delay>:


void delay(uint32_t n)
{
 8003418:	b480      	push	{r7}
 800341a:	b083      	sub	sp, #12
 800341c:	af00      	add	r7, sp, #0
 800341e:	6078      	str	r0, [r7, #4]
	while(n--);
 8003420:	bf00      	nop
 8003422:	687b      	ldr	r3, [r7, #4]
 8003424:	1e5a      	subs	r2, r3, #1
 8003426:	607a      	str	r2, [r7, #4]
 8003428:	2b00      	cmp	r3, #0
 800342a:	d1fa      	bne.n	8003422 <delay+0xa>
}
 800342c:	bf00      	nop
 800342e:	bf00      	nop
 8003430:	370c      	adds	r7, #12
 8003432:	46bd      	mov	sp, r7
 8003434:	f85d 7b04 	ldr.w	r7, [sp], #4
 8003438:	4770      	bx	lr
	...

0800343c <CAN1_RX0_IRQHandler>:


void CAN1_RX0_IRQHandler(){
 800343c:	b580      	push	{r7, lr}
 800343e:	af00      	add	r7, sp, #0
	NVIC_ClearPendingIRQ(CAN1_RX0_IRQn);
 8003440:	2014      	movs	r0, #20
 8003442:	f7fe faaf 	bl	80019a4 <__NVIC_ClearPendingIRQ>
	CAN1_Rx0_FIFOx (CAN1, FIFOmailBox0);
 8003446:	4b0c      	ldr	r3, [pc, #48]	@ (8003478 <CAN1_RX0_IRQHandler+0x3c>)
 8003448:	681b      	ldr	r3, [r3, #0]
 800344a:	4619      	mov	r1, r3
 800344c:	480b      	ldr	r0, [pc, #44]	@ (800347c <CAN1_RX0_IRQHandler+0x40>)
 800344e:	f7fd fd9c 	bl	8000f8a <CAN1_Rx0_FIFOx>
	receivedData0_L = CAN1->sFIFOMailBox[0].RDLR;
 8003452:	4b0a      	ldr	r3, [pc, #40]	@ (800347c <CAN1_RX0_IRQHandler+0x40>)
 8003454:	f8d3 31b8 	ldr.w	r3, [r3, #440]	@ 0x1b8
 8003458:	4a09      	ldr	r2, [pc, #36]	@ (8003480 <CAN1_RX0_IRQHandler+0x44>)
 800345a:	6013      	str	r3, [r2, #0]
	receivedData0_H = CAN1->sFIFOMailBox[0].RDHR;
 800345c:	4b07      	ldr	r3, [pc, #28]	@ (800347c <CAN1_RX0_IRQHandler+0x40>)
 800345e:	f8d3 31bc 	ldr.w	r3, [r3, #444]	@ 0x1bc
 8003462:	4a08      	ldr	r2, [pc, #32]	@ (8003484 <CAN1_RX0_IRQHandler+0x48>)
 8003464:	6013      	str	r3, [r2, #0]
    PID = (receivedData0_L & 0x00FF0000) >> 16;
 8003466:	4b06      	ldr	r3, [pc, #24]	@ (8003480 <CAN1_RX0_IRQHandler+0x44>)
 8003468:	681b      	ldr	r3, [r3, #0]
 800346a:	0c1b      	lsrs	r3, r3, #16
 800346c:	b2da      	uxtb	r2, r3
 800346e:	4b06      	ldr	r3, [pc, #24]	@ (8003488 <CAN1_RX0_IRQHandler+0x4c>)
 8003470:	701a      	strb	r2, [r3, #0]
}
 8003472:	bf00      	nop
 8003474:	bd80      	pop	{r7, pc}
 8003476:	bf00      	nop
 8003478:	20000220 	.word	0x20000220
 800347c:	40006400 	.word	0x40006400
 8003480:	20000200 	.word	0x20000200
 8003484:	20000204 	.word	0x20000204
 8003488:	20000210 	.word	0x20000210

0800348c <CAN1_RX1_IRQHandler>:
void CAN1_RX1_IRQHandler(){
 800348c:	b580      	push	{r7, lr}
 800348e:	af00      	add	r7, sp, #0
     NVIC_ClearPendingIRQ(CAN1_RX1_IRQn);
 8003490:	2015      	movs	r0, #21
 8003492:	f7fe fa87 	bl	80019a4 <__NVIC_ClearPendingIRQ>
     CAN1_Rx1_FIFOx (CAN1, FIFOmailBox1);
 8003496:	4b0c      	ldr	r3, [pc, #48]	@ (80034c8 <CAN1_RX1_IRQHandler+0x3c>)
 8003498:	681b      	ldr	r3, [r3, #0]
 800349a:	4619      	mov	r1, r3
 800349c:	480b      	ldr	r0, [pc, #44]	@ (80034cc <CAN1_RX1_IRQHandler+0x40>)
 800349e:	f7fd fdf1 	bl	8001084 <CAN1_Rx1_FIFOx>
     receivedData1_L = CAN1->sFIFOMailBox[1].RDLR;
 80034a2:	4b0a      	ldr	r3, [pc, #40]	@ (80034cc <CAN1_RX1_IRQHandler+0x40>)
 80034a4:	f8d3 31c8 	ldr.w	r3, [r3, #456]	@ 0x1c8
 80034a8:	4a09      	ldr	r2, [pc, #36]	@ (80034d0 <CAN1_RX1_IRQHandler+0x44>)
 80034aa:	6013      	str	r3, [r2, #0]
     receivedData1_H = CAN1->sFIFOMailBox[1].RDHR;
 80034ac:	4b07      	ldr	r3, [pc, #28]	@ (80034cc <CAN1_RX1_IRQHandler+0x40>)
 80034ae:	f8d3 31cc 	ldr.w	r3, [r3, #460]	@ 0x1cc
 80034b2:	4a08      	ldr	r2, [pc, #32]	@ (80034d4 <CAN1_RX1_IRQHandler+0x48>)
 80034b4:	6013      	str	r3, [r2, #0]
     PID = (receivedData1_L & 0x00FF0000) >> 16;
 80034b6:	4b06      	ldr	r3, [pc, #24]	@ (80034d0 <CAN1_RX1_IRQHandler+0x44>)
 80034b8:	681b      	ldr	r3, [r3, #0]
 80034ba:	0c1b      	lsrs	r3, r3, #16
 80034bc:	b2da      	uxtb	r2, r3
 80034be:	4b06      	ldr	r3, [pc, #24]	@ (80034d8 <CAN1_RX1_IRQHandler+0x4c>)
 80034c0:	701a      	strb	r2, [r3, #0]
}
 80034c2:	bf00      	nop
 80034c4:	bd80      	pop	{r7, pc}
 80034c6:	bf00      	nop
 80034c8:	20000224 	.word	0x20000224
 80034cc:	40006400 	.word	0x40006400
 80034d0:	20000208 	.word	0x20000208
 80034d4:	2000020c 	.word	0x2000020c
 80034d8:	20000210 	.word	0x20000210

080034dc <SSD1306_Refresh>:
    ByteC = (receivedData0_H & 0x0000FF00) >> 8;
    ByteD = (receivedData0_H  & 0x00FF0000) >> 16;
    Combustible = (ByteA * 100) / 255;
}

void SSD1306_Refresh (void){
 80034dc:	b580      	push	{r7, lr}
 80034de:	b084      	sub	sp, #16
 80034e0:	af00      	add	r7, sp, #0
char buffer[10]; // Espacio para almacenar la representación en cadena
I2C_Tx_2Bytes(I2C3, AdreSSD1306, ControlbC, SSD1306_SETPAGE3);
 80034e2:	23b3      	movs	r3, #179	@ 0xb3
 80034e4:	2200      	movs	r2, #0
 80034e6:	213c      	movs	r1, #60	@ 0x3c
 80034e8:	4834      	ldr	r0, [pc, #208]	@ (80035bc <SSD1306_Refresh+0xe0>)
 80034ea:	f7fe f8ef 	bl	80016cc <I2C_Tx_2Bytes>
SSD1306_PosCom(80);
 80034ee:	2050      	movs	r0, #80	@ 0x50
 80034f0:	f7ff fc12 	bl	8002d18 <SSD1306_PosCom>
SSD1306_WriteString("            ");
 80034f4:	4832      	ldr	r0, [pc, #200]	@ (80035c0 <SSD1306_Refresh+0xe4>)
 80034f6:	f7fe fb0f 	bl	8001b18 <SSD1306_WriteString>
I2C_Tx_2Bytes(I2C3, AdreSSD1306, ControlbC, SSD1306_SETPAGE3);
 80034fa:	23b3      	movs	r3, #179	@ 0xb3
 80034fc:	2200      	movs	r2, #0
 80034fe:	213c      	movs	r1, #60	@ 0x3c
 8003500:	482e      	ldr	r0, [pc, #184]	@ (80035bc <SSD1306_Refresh+0xe0>)
 8003502:	f7fe f8e3 	bl	80016cc <I2C_Tx_2Bytes>
SSD1306_PosCom(80);
 8003506:	2050      	movs	r0, #80	@ 0x50
 8003508:	f7ff fc06 	bl	8002d18 <SSD1306_PosCom>
sprintf(buffer, "%d", Vel_Km);
 800350c:	4b2d      	ldr	r3, [pc, #180]	@ (80035c4 <SSD1306_Refresh+0xe8>)
 800350e:	681a      	ldr	r2, [r3, #0]
 8003510:	1d3b      	adds	r3, r7, #4
 8003512:	492d      	ldr	r1, [pc, #180]	@ (80035c8 <SSD1306_Refresh+0xec>)
 8003514:	4618      	mov	r0, r3
 8003516:	f000 f8d9 	bl	80036cc <siprintf>
SSD1306_WriteString(buffer); // Escribe la cadena en la pantalla OLED
 800351a:	1d3b      	adds	r3, r7, #4
 800351c:	4618      	mov	r0, r3
 800351e:	f7fe fafb 	bl	8001b18 <SSD1306_WriteString>
SSD1306_WriteString(" KM");
 8003522:	482a      	ldr	r0, [pc, #168]	@ (80035cc <SSD1306_Refresh+0xf0>)
 8003524:	f7fe faf8 	bl	8001b18 <SSD1306_WriteString>
I2C_Tx_2Bytes(I2C3, AdreSSD1306, ControlbC, SSD1306_SETPAGE5);
 8003528:	23b5      	movs	r3, #181	@ 0xb5
 800352a:	2200      	movs	r2, #0
 800352c:	213c      	movs	r1, #60	@ 0x3c
 800352e:	4823      	ldr	r0, [pc, #140]	@ (80035bc <SSD1306_Refresh+0xe0>)
 8003530:	f7fe f8cc 	bl	80016cc <I2C_Tx_2Bytes>
SSD1306_PosCom(50);
 8003534:	2032      	movs	r0, #50	@ 0x32
 8003536:	f7ff fbef 	bl	8002d18 <SSD1306_PosCom>
SSD1306_WriteString("               ");
 800353a:	4825      	ldr	r0, [pc, #148]	@ (80035d0 <SSD1306_Refresh+0xf4>)
 800353c:	f7fe faec 	bl	8001b18 <SSD1306_WriteString>
I2C_Tx_2Bytes(I2C3, AdreSSD1306, ControlbC, SSD1306_SETPAGE5);
 8003540:	23b5      	movs	r3, #181	@ 0xb5
 8003542:	2200      	movs	r2, #0
 8003544:	213c      	movs	r1, #60	@ 0x3c
 8003546:	481d      	ldr	r0, [pc, #116]	@ (80035bc <SSD1306_Refresh+0xe0>)
 8003548:	f7fe f8c0 	bl	80016cc <I2C_Tx_2Bytes>
SSD1306_PosCom(50);
 800354c:	2032      	movs	r0, #50	@ 0x32
 800354e:	f7ff fbe3 	bl	8002d18 <SSD1306_PosCom>
sprintf(buffer, "%d", RPM_motor);
 8003552:	4b20      	ldr	r3, [pc, #128]	@ (80035d4 <SSD1306_Refresh+0xf8>)
 8003554:	681a      	ldr	r2, [r3, #0]
 8003556:	1d3b      	adds	r3, r7, #4
 8003558:	491b      	ldr	r1, [pc, #108]	@ (80035c8 <SSD1306_Refresh+0xec>)
 800355a:	4618      	mov	r0, r3
 800355c:	f000 f8b6 	bl	80036cc <siprintf>
SSD1306_WriteString(buffer); // Escribe la cadena en la pantalla OLED
 8003560:	1d3b      	adds	r3, r7, #4
 8003562:	4618      	mov	r0, r3
 8003564:	f7fe fad8 	bl	8001b18 <SSD1306_WriteString>
SSD1306_WriteString(" RPM");
 8003568:	481b      	ldr	r0, [pc, #108]	@ (80035d8 <SSD1306_Refresh+0xfc>)
 800356a:	f7fe fad5 	bl	8001b18 <SSD1306_WriteString>
I2C_Tx_2Bytes(I2C3, AdreSSD1306, ControlbC, SSD1306_SETPAGE7);
 800356e:	23b7      	movs	r3, #183	@ 0xb7
 8003570:	2200      	movs	r2, #0
 8003572:	213c      	movs	r1, #60	@ 0x3c
 8003574:	4811      	ldr	r0, [pc, #68]	@ (80035bc <SSD1306_Refresh+0xe0>)
 8003576:	f7fe f8a9 	bl	80016cc <I2C_Tx_2Bytes>
SSD1306_PosCom(70);
 800357a:	2046      	movs	r0, #70	@ 0x46
 800357c:	f7ff fbcc 	bl	8002d18 <SSD1306_PosCom>
SSD1306_WriteString("              ");
 8003580:	4816      	ldr	r0, [pc, #88]	@ (80035dc <SSD1306_Refresh+0x100>)
 8003582:	f7fe fac9 	bl	8001b18 <SSD1306_WriteString>
I2C_Tx_2Bytes(I2C3, AdreSSD1306, ControlbC, SSD1306_SETPAGE7);
 8003586:	23b7      	movs	r3, #183	@ 0xb7
 8003588:	2200      	movs	r2, #0
 800358a:	213c      	movs	r1, #60	@ 0x3c
 800358c:	480b      	ldr	r0, [pc, #44]	@ (80035bc <SSD1306_Refresh+0xe0>)
 800358e:	f7fe f89d 	bl	80016cc <I2C_Tx_2Bytes>
SSD1306_PosCom(70);
 8003592:	2046      	movs	r0, #70	@ 0x46
 8003594:	f7ff fbc0 	bl	8002d18 <SSD1306_PosCom>
sprintf(buffer, "%d", Combustible);
 8003598:	4b11      	ldr	r3, [pc, #68]	@ (80035e0 <SSD1306_Refresh+0x104>)
 800359a:	681a      	ldr	r2, [r3, #0]
 800359c:	1d3b      	adds	r3, r7, #4
 800359e:	490a      	ldr	r1, [pc, #40]	@ (80035c8 <SSD1306_Refresh+0xec>)
 80035a0:	4618      	mov	r0, r3
 80035a2:	f000 f893 	bl	80036cc <siprintf>
SSD1306_WriteString(buffer); // Escribe la cadena en la pantalla OLED
 80035a6:	1d3b      	adds	r3, r7, #4
 80035a8:	4618      	mov	r0, r3
 80035aa:	f7fe fab5 	bl	8001b18 <SSD1306_WriteString>
SSD1306_WriteString("  T");
 80035ae:	480d      	ldr	r0, [pc, #52]	@ (80035e4 <SSD1306_Refresh+0x108>)
 80035b0:	f7fe fab2 	bl	8001b18 <SSD1306_WriteString>
}
 80035b4:	bf00      	nop
 80035b6:	3710      	adds	r7, #16
 80035b8:	46bd      	mov	sp, r7
 80035ba:	bd80      	pop	{r7, pc}
 80035bc:	40005c00 	.word	0x40005c00
 80035c0:	0800432c 	.word	0x0800432c
 80035c4:	20000214 	.word	0x20000214
 80035c8:	0800433c 	.word	0x0800433c
 80035cc:	08004340 	.word	0x08004340
 80035d0:	08004344 	.word	0x08004344
 80035d4:	20000218 	.word	0x20000218
 80035d8:	08004354 	.word	0x08004354
 80035dc:	0800435c 	.word	0x0800435c
 80035e0:	2000021c 	.word	0x2000021c
 80035e4:	0800436c 	.word	0x0800436c

080035e8 <_sbrk>:
 *
 * @param incr Memory size
 * @return Pointer to allocated memory
 */
void *_sbrk(ptrdiff_t incr)
{
 80035e8:	b580      	push	{r7, lr}
 80035ea:	b086      	sub	sp, #24
 80035ec:	af00      	add	r7, sp, #0
 80035ee:	6078      	str	r0, [r7, #4]
  extern uint8_t _end; /* Symbol defined in the linker script */
  extern uint8_t _estack; /* Symbol defined in the linker script */
  extern uint32_t _Min_Stack_Size; /* Symbol defined in the linker script */
  const uint32_t stack_limit = (uint32_t)&_estack - (uint32_t)&_Min_Stack_Size;
 80035f0:	4a14      	ldr	r2, [pc, #80]	@ (8003644 <_sbrk+0x5c>)
 80035f2:	4b15      	ldr	r3, [pc, #84]	@ (8003648 <_sbrk+0x60>)
 80035f4:	1ad3      	subs	r3, r2, r3
 80035f6:	617b      	str	r3, [r7, #20]
  const uint8_t *max_heap = (uint8_t *)stack_limit;
 80035f8:	697b      	ldr	r3, [r7, #20]
 80035fa:	613b      	str	r3, [r7, #16]
  uint8_t *prev_heap_end;

  /* Initialize heap end at first call */
  if (NULL == __sbrk_heap_end)
 80035fc:	4b13      	ldr	r3, [pc, #76]	@ (800364c <_sbrk+0x64>)
 80035fe:	681b      	ldr	r3, [r3, #0]
 8003600:	2b00      	cmp	r3, #0
 8003602:	d102      	bne.n	800360a <_sbrk+0x22>
  {
    __sbrk_heap_end = &_end;
 8003604:	4b11      	ldr	r3, [pc, #68]	@ (800364c <_sbrk+0x64>)
 8003606:	4a12      	ldr	r2, [pc, #72]	@ (8003650 <_sbrk+0x68>)
 8003608:	601a      	str	r2, [r3, #0]
  }

  /* Protect heap from growing into the reserved MSP stack */
  if (__sbrk_heap_end + incr > max_heap)
 800360a:	4b10      	ldr	r3, [pc, #64]	@ (800364c <_sbrk+0x64>)
 800360c:	681a      	ldr	r2, [r3, #0]
 800360e:	687b      	ldr	r3, [r7, #4]
 8003610:	4413      	add	r3, r2
 8003612:	693a      	ldr	r2, [r7, #16]
 8003614:	429a      	cmp	r2, r3
 8003616:	d207      	bcs.n	8003628 <_sbrk+0x40>
  {
    errno = ENOMEM;
 8003618:	f000 f878 	bl	800370c <__errno>
 800361c:	4603      	mov	r3, r0
 800361e:	220c      	movs	r2, #12
 8003620:	601a      	str	r2, [r3, #0]
    return (void *)-1;
 8003622:	f04f 33ff 	mov.w	r3, #4294967295
 8003626:	e009      	b.n	800363c <_sbrk+0x54>
  }

  prev_heap_end = __sbrk_heap_end;
 8003628:	4b08      	ldr	r3, [pc, #32]	@ (800364c <_sbrk+0x64>)
 800362a:	681b      	ldr	r3, [r3, #0]
 800362c:	60fb      	str	r3, [r7, #12]
  __sbrk_heap_end += incr;
 800362e:	4b07      	ldr	r3, [pc, #28]	@ (800364c <_sbrk+0x64>)
 8003630:	681a      	ldr	r2, [r3, #0]
 8003632:	687b      	ldr	r3, [r7, #4]
 8003634:	4413      	add	r3, r2
 8003636:	4a05      	ldr	r2, [pc, #20]	@ (800364c <_sbrk+0x64>)
 8003638:	6013      	str	r3, [r2, #0]

  return (void *)prev_heap_end;
 800363a:	68fb      	ldr	r3, [r7, #12]
}
 800363c:	4618      	mov	r0, r3
 800363e:	3718      	adds	r7, #24
 8003640:	46bd      	mov	sp, r7
 8003642:	bd80      	pop	{r7, pc}
 8003644:	20028000 	.word	0x20028000
 8003648:	00000400 	.word	0x00000400
 800364c:	20000228 	.word	0x20000228
 8003650:	20000378 	.word	0x20000378

08003654 <SystemInit>:
  * @brief  Setup the microcontroller system.
  * @retval None
  */

void SystemInit(void)
{
 8003654:	b480      	push	{r7}
 8003656:	af00      	add	r7, sp, #0
  SCB->VTOR = VECT_TAB_BASE_ADDRESS | VECT_TAB_OFFSET;
#endif

  /* FPU settings ------------------------------------------------------------*/
#if (__FPU_PRESENT == 1) && (__FPU_USED == 1)
  SCB->CPACR |= ((3UL << 20U)|(3UL << 22U));  /* set CP10 and CP11 Full Access */
 8003658:	4b06      	ldr	r3, [pc, #24]	@ (8003674 <SystemInit+0x20>)
 800365a:	f8d3 3088 	ldr.w	r3, [r3, #136]	@ 0x88
 800365e:	4a05      	ldr	r2, [pc, #20]	@ (8003674 <SystemInit+0x20>)
 8003660:	f443 0370 	orr.w	r3, r3, #15728640	@ 0xf00000
 8003664:	f8c2 3088 	str.w	r3, [r2, #136]	@ 0x88
#endif
}
 8003668:	bf00      	nop
 800366a:	46bd      	mov	sp, r7
 800366c:	f85d 7b04 	ldr.w	r7, [sp], #4
 8003670:	4770      	bx	lr
 8003672:	bf00      	nop
 8003674:	e000ed00 	.word	0xe000ed00

08003678 <Reset_Handler>:

  .section .text.Reset_Handler
  .weak Reset_Handler
  .type Reset_Handler, %function
Reset_Handler:
  ldr   r0, =_estack
 8003678:	480d      	ldr	r0, [pc, #52]	@ (80036b0 <LoopForever+0x2>)
  mov   sp, r0          /* set stack pointer */
 800367a:	4685      	mov	sp, r0
/* Call the clock system initialization function.*/
  bl  SystemInit
 800367c:	f7ff ffea 	bl	8003654 <SystemInit>

/* Copy the data segment initializers from flash to SRAM */
  ldr r0, =_sdata
 8003680:	480c      	ldr	r0, [pc, #48]	@ (80036b4 <LoopForever+0x6>)
  ldr r1, =_edata
 8003682:	490d      	ldr	r1, [pc, #52]	@ (80036b8 <LoopForever+0xa>)
  ldr r2, =_sidata
 8003684:	4a0d      	ldr	r2, [pc, #52]	@ (80036bc <LoopForever+0xe>)
  movs r3, #0
 8003686:	2300      	movs	r3, #0
  b LoopCopyDataInit
 8003688:	e002      	b.n	8003690 <LoopCopyDataInit>

0800368a <CopyDataInit>:

CopyDataInit:
  ldr r4, [r2, r3]
 800368a:	58d4      	ldr	r4, [r2, r3]
  str r4, [r0, r3]
 800368c:	50c4      	str	r4, [r0, r3]
  adds r3, r3, #4
 800368e:	3304      	adds	r3, #4

08003690 <LoopCopyDataInit>:

LoopCopyDataInit:
  adds r4, r0, r3
 8003690:	18c4      	adds	r4, r0, r3
  cmp r4, r1
 8003692:	428c      	cmp	r4, r1
  bcc CopyDataInit
 8003694:	d3f9      	bcc.n	800368a <CopyDataInit>

/* Zero fill the bss segment. */
  ldr r2, =_sbss
 8003696:	4a0a      	ldr	r2, [pc, #40]	@ (80036c0 <LoopForever+0x12>)
  ldr r4, =_ebss
 8003698:	4c0a      	ldr	r4, [pc, #40]	@ (80036c4 <LoopForever+0x16>)
  movs r3, #0
 800369a:	2300      	movs	r3, #0
  b LoopFillZerobss
 800369c:	e001      	b.n	80036a2 <LoopFillZerobss>

0800369e <FillZerobss>:

FillZerobss:
  str  r3, [r2]
 800369e:	6013      	str	r3, [r2, #0]
  adds r2, r2, #4
 80036a0:	3204      	adds	r2, #4

080036a2 <LoopFillZerobss>:

LoopFillZerobss:
  cmp r2, r4
 80036a2:	42a2      	cmp	r2, r4
  bcc FillZerobss
 80036a4:	d3fb      	bcc.n	800369e <FillZerobss>

/* Call static constructors */
  bl __libc_init_array
 80036a6:	f000 f837 	bl	8003718 <__libc_init_array>
/* Call the application's entry point.*/
  bl main
 80036aa:	f7ff fba1 	bl	8002df0 <main>

080036ae <LoopForever>:

LoopForever:
  b LoopForever
 80036ae:	e7fe      	b.n	80036ae <LoopForever>
  ldr   r0, =_estack
 80036b0:	20028000 	.word	0x20028000
  ldr r0, =_sdata
 80036b4:	20000000 	.word	0x20000000
  ldr r1, =_edata
 80036b8:	20000050 	.word	0x20000050
  ldr r2, =_sidata
 80036bc:	080043b4 	.word	0x080043b4
  ldr r2, =_sbss
 80036c0:	20000050 	.word	0x20000050
  ldr r4, =_ebss
 80036c4:	20000374 	.word	0x20000374

080036c8 <ADC1_IRQHandler>:
 * @retval : None
*/
  .section .text.Default_Handler,"ax",%progbits
Default_Handler:
Infinite_Loop:
  b Infinite_Loop
 80036c8:	e7fe      	b.n	80036c8 <ADC1_IRQHandler>
	...

080036cc <siprintf>:
 80036cc:	b40e      	push	{r1, r2, r3}
 80036ce:	b500      	push	{lr}
 80036d0:	b09c      	sub	sp, #112	@ 0x70
 80036d2:	ab1d      	add	r3, sp, #116	@ 0x74
 80036d4:	9002      	str	r0, [sp, #8]
 80036d6:	9006      	str	r0, [sp, #24]
 80036d8:	f06f 4100 	mvn.w	r1, #2147483648	@ 0x80000000
 80036dc:	4809      	ldr	r0, [pc, #36]	@ (8003704 <siprintf+0x38>)
 80036de:	9107      	str	r1, [sp, #28]
 80036e0:	9104      	str	r1, [sp, #16]
 80036e2:	4909      	ldr	r1, [pc, #36]	@ (8003708 <siprintf+0x3c>)
 80036e4:	f853 2b04 	ldr.w	r2, [r3], #4
 80036e8:	9105      	str	r1, [sp, #20]
 80036ea:	6800      	ldr	r0, [r0, #0]
 80036ec:	9301      	str	r3, [sp, #4]
 80036ee:	a902      	add	r1, sp, #8
 80036f0:	f000 f98c 	bl	8003a0c <_svfiprintf_r>
 80036f4:	9b02      	ldr	r3, [sp, #8]
 80036f6:	2200      	movs	r2, #0
 80036f8:	701a      	strb	r2, [r3, #0]
 80036fa:	b01c      	add	sp, #112	@ 0x70
 80036fc:	f85d eb04 	ldr.w	lr, [sp], #4
 8003700:	b003      	add	sp, #12
 8003702:	4770      	bx	lr
 8003704:	20000000 	.word	0x20000000
 8003708:	ffff0208 	.word	0xffff0208

0800370c <__errno>:
 800370c:	4b01      	ldr	r3, [pc, #4]	@ (8003714 <__errno+0x8>)
 800370e:	6818      	ldr	r0, [r3, #0]
 8003710:	4770      	bx	lr
 8003712:	bf00      	nop
 8003714:	20000000 	.word	0x20000000

08003718 <__libc_init_array>:
 8003718:	b570      	push	{r4, r5, r6, lr}
 800371a:	4d0d      	ldr	r5, [pc, #52]	@ (8003750 <__libc_init_array+0x38>)
 800371c:	4c0d      	ldr	r4, [pc, #52]	@ (8003754 <__libc_init_array+0x3c>)
 800371e:	1b64      	subs	r4, r4, r5
 8003720:	10a4      	asrs	r4, r4, #2
 8003722:	2600      	movs	r6, #0
 8003724:	42a6      	cmp	r6, r4
 8003726:	d109      	bne.n	800373c <__libc_init_array+0x24>
 8003728:	4d0b      	ldr	r5, [pc, #44]	@ (8003758 <__libc_init_array+0x40>)
 800372a:	4c0c      	ldr	r4, [pc, #48]	@ (800375c <__libc_init_array+0x44>)
 800372c:	f000 fc66 	bl	8003ffc <_init>
 8003730:	1b64      	subs	r4, r4, r5
 8003732:	10a4      	asrs	r4, r4, #2
 8003734:	2600      	movs	r6, #0
 8003736:	42a6      	cmp	r6, r4
 8003738:	d105      	bne.n	8003746 <__libc_init_array+0x2e>
 800373a:	bd70      	pop	{r4, r5, r6, pc}
 800373c:	f855 3b04 	ldr.w	r3, [r5], #4
 8003740:	4798      	blx	r3
 8003742:	3601      	adds	r6, #1
 8003744:	e7ee      	b.n	8003724 <__libc_init_array+0xc>
 8003746:	f855 3b04 	ldr.w	r3, [r5], #4
 800374a:	4798      	blx	r3
 800374c:	3601      	adds	r6, #1
 800374e:	e7f2      	b.n	8003736 <__libc_init_array+0x1e>
 8003750:	080043ac 	.word	0x080043ac
 8003754:	080043ac 	.word	0x080043ac
 8003758:	080043ac 	.word	0x080043ac
 800375c:	080043b0 	.word	0x080043b0

08003760 <__retarget_lock_acquire_recursive>:
 8003760:	4770      	bx	lr

08003762 <__retarget_lock_release_recursive>:
 8003762:	4770      	bx	lr

08003764 <_free_r>:
 8003764:	b538      	push	{r3, r4, r5, lr}
 8003766:	4605      	mov	r5, r0
 8003768:	2900      	cmp	r1, #0
 800376a:	d041      	beq.n	80037f0 <_free_r+0x8c>
 800376c:	f851 3c04 	ldr.w	r3, [r1, #-4]
 8003770:	1f0c      	subs	r4, r1, #4
 8003772:	2b00      	cmp	r3, #0
 8003774:	bfb8      	it	lt
 8003776:	18e4      	addlt	r4, r4, r3
 8003778:	f000 f8e0 	bl	800393c <__malloc_lock>
 800377c:	4a1d      	ldr	r2, [pc, #116]	@ (80037f4 <_free_r+0x90>)
 800377e:	6813      	ldr	r3, [r2, #0]
 8003780:	b933      	cbnz	r3, 8003790 <_free_r+0x2c>
 8003782:	6063      	str	r3, [r4, #4]
 8003784:	6014      	str	r4, [r2, #0]
 8003786:	4628      	mov	r0, r5
 8003788:	e8bd 4038 	ldmia.w	sp!, {r3, r4, r5, lr}
 800378c:	f000 b8dc 	b.w	8003948 <__malloc_unlock>
 8003790:	42a3      	cmp	r3, r4
 8003792:	d908      	bls.n	80037a6 <_free_r+0x42>
 8003794:	6820      	ldr	r0, [r4, #0]
 8003796:	1821      	adds	r1, r4, r0
 8003798:	428b      	cmp	r3, r1
 800379a:	bf01      	itttt	eq
 800379c:	6819      	ldreq	r1, [r3, #0]
 800379e:	685b      	ldreq	r3, [r3, #4]
 80037a0:	1809      	addeq	r1, r1, r0
 80037a2:	6021      	streq	r1, [r4, #0]
 80037a4:	e7ed      	b.n	8003782 <_free_r+0x1e>
 80037a6:	461a      	mov	r2, r3
 80037a8:	685b      	ldr	r3, [r3, #4]
 80037aa:	b10b      	cbz	r3, 80037b0 <_free_r+0x4c>
 80037ac:	42a3      	cmp	r3, r4
 80037ae:	d9fa      	bls.n	80037a6 <_free_r+0x42>
 80037b0:	6811      	ldr	r1, [r2, #0]
 80037b2:	1850      	adds	r0, r2, r1
 80037b4:	42a0      	cmp	r0, r4
 80037b6:	d10b      	bne.n	80037d0 <_free_r+0x6c>
 80037b8:	6820      	ldr	r0, [r4, #0]
 80037ba:	4401      	add	r1, r0
 80037bc:	1850      	adds	r0, r2, r1
 80037be:	4283      	cmp	r3, r0
 80037c0:	6011      	str	r1, [r2, #0]
 80037c2:	d1e0      	bne.n	8003786 <_free_r+0x22>
 80037c4:	6818      	ldr	r0, [r3, #0]
 80037c6:	685b      	ldr	r3, [r3, #4]
 80037c8:	6053      	str	r3, [r2, #4]
 80037ca:	4408      	add	r0, r1
 80037cc:	6010      	str	r0, [r2, #0]
 80037ce:	e7da      	b.n	8003786 <_free_r+0x22>
 80037d0:	d902      	bls.n	80037d8 <_free_r+0x74>
 80037d2:	230c      	movs	r3, #12
 80037d4:	602b      	str	r3, [r5, #0]
 80037d6:	e7d6      	b.n	8003786 <_free_r+0x22>
 80037d8:	6820      	ldr	r0, [r4, #0]
 80037da:	1821      	adds	r1, r4, r0
 80037dc:	428b      	cmp	r3, r1
 80037de:	bf04      	itt	eq
 80037e0:	6819      	ldreq	r1, [r3, #0]
 80037e2:	685b      	ldreq	r3, [r3, #4]
 80037e4:	6063      	str	r3, [r4, #4]
 80037e6:	bf04      	itt	eq
 80037e8:	1809      	addeq	r1, r1, r0
 80037ea:	6021      	streq	r1, [r4, #0]
 80037ec:	6054      	str	r4, [r2, #4]
 80037ee:	e7ca      	b.n	8003786 <_free_r+0x22>
 80037f0:	bd38      	pop	{r3, r4, r5, pc}
 80037f2:	bf00      	nop
 80037f4:	20000370 	.word	0x20000370

080037f8 <sbrk_aligned>:
 80037f8:	b570      	push	{r4, r5, r6, lr}
 80037fa:	4e0f      	ldr	r6, [pc, #60]	@ (8003838 <sbrk_aligned+0x40>)
 80037fc:	460c      	mov	r4, r1
 80037fe:	6831      	ldr	r1, [r6, #0]
 8003800:	4605      	mov	r5, r0
 8003802:	b911      	cbnz	r1, 800380a <sbrk_aligned+0x12>
 8003804:	f000 fba6 	bl	8003f54 <_sbrk_r>
 8003808:	6030      	str	r0, [r6, #0]
 800380a:	4621      	mov	r1, r4
 800380c:	4628      	mov	r0, r5
 800380e:	f000 fba1 	bl	8003f54 <_sbrk_r>
 8003812:	1c43      	adds	r3, r0, #1
 8003814:	d103      	bne.n	800381e <sbrk_aligned+0x26>
 8003816:	f04f 34ff 	mov.w	r4, #4294967295
 800381a:	4620      	mov	r0, r4
 800381c:	bd70      	pop	{r4, r5, r6, pc}
 800381e:	1cc4      	adds	r4, r0, #3
 8003820:	f024 0403 	bic.w	r4, r4, #3
 8003824:	42a0      	cmp	r0, r4
 8003826:	d0f8      	beq.n	800381a <sbrk_aligned+0x22>
 8003828:	1a21      	subs	r1, r4, r0
 800382a:	4628      	mov	r0, r5
 800382c:	f000 fb92 	bl	8003f54 <_sbrk_r>
 8003830:	3001      	adds	r0, #1
 8003832:	d1f2      	bne.n	800381a <sbrk_aligned+0x22>
 8003834:	e7ef      	b.n	8003816 <sbrk_aligned+0x1e>
 8003836:	bf00      	nop
 8003838:	2000036c 	.word	0x2000036c

0800383c <_malloc_r>:
 800383c:	e92d 43f8 	stmdb	sp!, {r3, r4, r5, r6, r7, r8, r9, lr}
 8003840:	1ccd      	adds	r5, r1, #3
 8003842:	f025 0503 	bic.w	r5, r5, #3
 8003846:	3508      	adds	r5, #8
 8003848:	2d0c      	cmp	r5, #12
 800384a:	bf38      	it	cc
 800384c:	250c      	movcc	r5, #12
 800384e:	2d00      	cmp	r5, #0
 8003850:	4606      	mov	r6, r0
 8003852:	db01      	blt.n	8003858 <_malloc_r+0x1c>
 8003854:	42a9      	cmp	r1, r5
 8003856:	d904      	bls.n	8003862 <_malloc_r+0x26>
 8003858:	230c      	movs	r3, #12
 800385a:	6033      	str	r3, [r6, #0]
 800385c:	2000      	movs	r0, #0
 800385e:	e8bd 83f8 	ldmia.w	sp!, {r3, r4, r5, r6, r7, r8, r9, pc}
 8003862:	f8df 80d4 	ldr.w	r8, [pc, #212]	@ 8003938 <_malloc_r+0xfc>
 8003866:	f000 f869 	bl	800393c <__malloc_lock>
 800386a:	f8d8 3000 	ldr.w	r3, [r8]
 800386e:	461c      	mov	r4, r3
 8003870:	bb44      	cbnz	r4, 80038c4 <_malloc_r+0x88>
 8003872:	4629      	mov	r1, r5
 8003874:	4630      	mov	r0, r6
 8003876:	f7ff ffbf 	bl	80037f8 <sbrk_aligned>
 800387a:	1c43      	adds	r3, r0, #1
 800387c:	4604      	mov	r4, r0
 800387e:	d158      	bne.n	8003932 <_malloc_r+0xf6>
 8003880:	f8d8 4000 	ldr.w	r4, [r8]
 8003884:	4627      	mov	r7, r4
 8003886:	2f00      	cmp	r7, #0
 8003888:	d143      	bne.n	8003912 <_malloc_r+0xd6>
 800388a:	2c00      	cmp	r4, #0
 800388c:	d04b      	beq.n	8003926 <_malloc_r+0xea>
 800388e:	6823      	ldr	r3, [r4, #0]
 8003890:	4639      	mov	r1, r7
 8003892:	4630      	mov	r0, r6
 8003894:	eb04 0903 	add.w	r9, r4, r3
 8003898:	f000 fb5c 	bl	8003f54 <_sbrk_r>
 800389c:	4581      	cmp	r9, r0
 800389e:	d142      	bne.n	8003926 <_malloc_r+0xea>
 80038a0:	6821      	ldr	r1, [r4, #0]
 80038a2:	1a6d      	subs	r5, r5, r1
 80038a4:	4629      	mov	r1, r5
 80038a6:	4630      	mov	r0, r6
 80038a8:	f7ff ffa6 	bl	80037f8 <sbrk_aligned>
 80038ac:	3001      	adds	r0, #1
 80038ae:	d03a      	beq.n	8003926 <_malloc_r+0xea>
 80038b0:	6823      	ldr	r3, [r4, #0]
 80038b2:	442b      	add	r3, r5
 80038b4:	6023      	str	r3, [r4, #0]
 80038b6:	f8d8 3000 	ldr.w	r3, [r8]
 80038ba:	685a      	ldr	r2, [r3, #4]
 80038bc:	bb62      	cbnz	r2, 8003918 <_malloc_r+0xdc>
 80038be:	f8c8 7000 	str.w	r7, [r8]
 80038c2:	e00f      	b.n	80038e4 <_malloc_r+0xa8>
 80038c4:	6822      	ldr	r2, [r4, #0]
 80038c6:	1b52      	subs	r2, r2, r5
 80038c8:	d420      	bmi.n	800390c <_malloc_r+0xd0>
 80038ca:	2a0b      	cmp	r2, #11
 80038cc:	d917      	bls.n	80038fe <_malloc_r+0xc2>
 80038ce:	1961      	adds	r1, r4, r5
 80038d0:	42a3      	cmp	r3, r4
 80038d2:	6025      	str	r5, [r4, #0]
 80038d4:	bf18      	it	ne
 80038d6:	6059      	strne	r1, [r3, #4]
 80038d8:	6863      	ldr	r3, [r4, #4]
 80038da:	bf08      	it	eq
 80038dc:	f8c8 1000 	streq.w	r1, [r8]
 80038e0:	5162      	str	r2, [r4, r5]
 80038e2:	604b      	str	r3, [r1, #4]
 80038e4:	4630      	mov	r0, r6
 80038e6:	f000 f82f 	bl	8003948 <__malloc_unlock>
 80038ea:	f104 000b 	add.w	r0, r4, #11
 80038ee:	1d23      	adds	r3, r4, #4
 80038f0:	f020 0007 	bic.w	r0, r0, #7
 80038f4:	1ac2      	subs	r2, r0, r3
 80038f6:	bf1c      	itt	ne
 80038f8:	1a1b      	subne	r3, r3, r0
 80038fa:	50a3      	strne	r3, [r4, r2]
 80038fc:	e7af      	b.n	800385e <_malloc_r+0x22>
 80038fe:	6862      	ldr	r2, [r4, #4]
 8003900:	42a3      	cmp	r3, r4
 8003902:	bf0c      	ite	eq
 8003904:	f8c8 2000 	streq.w	r2, [r8]
 8003908:	605a      	strne	r2, [r3, #4]
 800390a:	e7eb      	b.n	80038e4 <_malloc_r+0xa8>
 800390c:	4623      	mov	r3, r4
 800390e:	6864      	ldr	r4, [r4, #4]
 8003910:	e7ae      	b.n	8003870 <_malloc_r+0x34>
 8003912:	463c      	mov	r4, r7
 8003914:	687f      	ldr	r7, [r7, #4]
 8003916:	e7b6      	b.n	8003886 <_malloc_r+0x4a>
 8003918:	461a      	mov	r2, r3
 800391a:	685b      	ldr	r3, [r3, #4]
 800391c:	42a3      	cmp	r3, r4
 800391e:	d1fb      	bne.n	8003918 <_malloc_r+0xdc>
 8003920:	2300      	movs	r3, #0
 8003922:	6053      	str	r3, [r2, #4]
 8003924:	e7de      	b.n	80038e4 <_malloc_r+0xa8>
 8003926:	230c      	movs	r3, #12
 8003928:	6033      	str	r3, [r6, #0]
 800392a:	4630      	mov	r0, r6
 800392c:	f000 f80c 	bl	8003948 <__malloc_unlock>
 8003930:	e794      	b.n	800385c <_malloc_r+0x20>
 8003932:	6005      	str	r5, [r0, #0]
 8003934:	e7d6      	b.n	80038e4 <_malloc_r+0xa8>
 8003936:	bf00      	nop
 8003938:	20000370 	.word	0x20000370

0800393c <__malloc_lock>:
 800393c:	4801      	ldr	r0, [pc, #4]	@ (8003944 <__malloc_lock+0x8>)
 800393e:	f7ff bf0f 	b.w	8003760 <__retarget_lock_acquire_recursive>
 8003942:	bf00      	nop
 8003944:	20000368 	.word	0x20000368

08003948 <__malloc_unlock>:
 8003948:	4801      	ldr	r0, [pc, #4]	@ (8003950 <__malloc_unlock+0x8>)
 800394a:	f7ff bf0a 	b.w	8003762 <__retarget_lock_release_recursive>
 800394e:	bf00      	nop
 8003950:	20000368 	.word	0x20000368

08003954 <__ssputs_r>:
 8003954:	e92d 47f0 	stmdb	sp!, {r4, r5, r6, r7, r8, r9, sl, lr}
 8003958:	688e      	ldr	r6, [r1, #8]
 800395a:	461f      	mov	r7, r3
 800395c:	42be      	cmp	r6, r7
 800395e:	680b      	ldr	r3, [r1, #0]
 8003960:	4682      	mov	sl, r0
 8003962:	460c      	mov	r4, r1
 8003964:	4690      	mov	r8, r2
 8003966:	d82d      	bhi.n	80039c4 <__ssputs_r+0x70>
 8003968:	f9b1 200c 	ldrsh.w	r2, [r1, #12]
 800396c:	f412 6f90 	tst.w	r2, #1152	@ 0x480
 8003970:	d026      	beq.n	80039c0 <__ssputs_r+0x6c>
 8003972:	6965      	ldr	r5, [r4, #20]
 8003974:	6909      	ldr	r1, [r1, #16]
 8003976:	eb05 0545 	add.w	r5, r5, r5, lsl #1
 800397a:	eba3 0901 	sub.w	r9, r3, r1
 800397e:	eb05 75d5 	add.w	r5, r5, r5, lsr #31
 8003982:	1c7b      	adds	r3, r7, #1
 8003984:	444b      	add	r3, r9
 8003986:	106d      	asrs	r5, r5, #1
 8003988:	429d      	cmp	r5, r3
 800398a:	bf38      	it	cc
 800398c:	461d      	movcc	r5, r3
 800398e:	0553      	lsls	r3, r2, #21
 8003990:	d527      	bpl.n	80039e2 <__ssputs_r+0x8e>
 8003992:	4629      	mov	r1, r5
 8003994:	f7ff ff52 	bl	800383c <_malloc_r>
 8003998:	4606      	mov	r6, r0
 800399a:	b360      	cbz	r0, 80039f6 <__ssputs_r+0xa2>
 800399c:	6921      	ldr	r1, [r4, #16]
 800399e:	464a      	mov	r2, r9
 80039a0:	f000 fae8 	bl	8003f74 <memcpy>
 80039a4:	89a3      	ldrh	r3, [r4, #12]
 80039a6:	f423 6390 	bic.w	r3, r3, #1152	@ 0x480
 80039aa:	f043 0380 	orr.w	r3, r3, #128	@ 0x80
 80039ae:	81a3      	strh	r3, [r4, #12]
 80039b0:	6126      	str	r6, [r4, #16]
 80039b2:	6165      	str	r5, [r4, #20]
 80039b4:	444e      	add	r6, r9
 80039b6:	eba5 0509 	sub.w	r5, r5, r9
 80039ba:	6026      	str	r6, [r4, #0]
 80039bc:	60a5      	str	r5, [r4, #8]
 80039be:	463e      	mov	r6, r7
 80039c0:	42be      	cmp	r6, r7
 80039c2:	d900      	bls.n	80039c6 <__ssputs_r+0x72>
 80039c4:	463e      	mov	r6, r7
 80039c6:	6820      	ldr	r0, [r4, #0]
 80039c8:	4632      	mov	r2, r6
 80039ca:	4641      	mov	r1, r8
 80039cc:	f000 faa8 	bl	8003f20 <memmove>
 80039d0:	68a3      	ldr	r3, [r4, #8]
 80039d2:	1b9b      	subs	r3, r3, r6
 80039d4:	60a3      	str	r3, [r4, #8]
 80039d6:	6823      	ldr	r3, [r4, #0]
 80039d8:	4433      	add	r3, r6
 80039da:	6023      	str	r3, [r4, #0]
 80039dc:	2000      	movs	r0, #0
 80039de:	e8bd 87f0 	ldmia.w	sp!, {r4, r5, r6, r7, r8, r9, sl, pc}
 80039e2:	462a      	mov	r2, r5
 80039e4:	f000 fad4 	bl	8003f90 <_realloc_r>
 80039e8:	4606      	mov	r6, r0
 80039ea:	2800      	cmp	r0, #0
 80039ec:	d1e0      	bne.n	80039b0 <__ssputs_r+0x5c>
 80039ee:	6921      	ldr	r1, [r4, #16]
 80039f0:	4650      	mov	r0, sl
 80039f2:	f7ff feb7 	bl	8003764 <_free_r>
 80039f6:	230c      	movs	r3, #12
 80039f8:	f8ca 3000 	str.w	r3, [sl]
 80039fc:	89a3      	ldrh	r3, [r4, #12]
 80039fe:	f043 0340 	orr.w	r3, r3, #64	@ 0x40
 8003a02:	81a3      	strh	r3, [r4, #12]
 8003a04:	f04f 30ff 	mov.w	r0, #4294967295
 8003a08:	e7e9      	b.n	80039de <__ssputs_r+0x8a>
	...

08003a0c <_svfiprintf_r>:
 8003a0c:	e92d 4ff0 	stmdb	sp!, {r4, r5, r6, r7, r8, r9, sl, fp, lr}
 8003a10:	4698      	mov	r8, r3
 8003a12:	898b      	ldrh	r3, [r1, #12]
 8003a14:	061b      	lsls	r3, r3, #24
 8003a16:	b09d      	sub	sp, #116	@ 0x74
 8003a18:	4607      	mov	r7, r0
 8003a1a:	460d      	mov	r5, r1
 8003a1c:	4614      	mov	r4, r2
 8003a1e:	d510      	bpl.n	8003a42 <_svfiprintf_r+0x36>
 8003a20:	690b      	ldr	r3, [r1, #16]
 8003a22:	b973      	cbnz	r3, 8003a42 <_svfiprintf_r+0x36>
 8003a24:	2140      	movs	r1, #64	@ 0x40
 8003a26:	f7ff ff09 	bl	800383c <_malloc_r>
 8003a2a:	6028      	str	r0, [r5, #0]
 8003a2c:	6128      	str	r0, [r5, #16]
 8003a2e:	b930      	cbnz	r0, 8003a3e <_svfiprintf_r+0x32>
 8003a30:	230c      	movs	r3, #12
 8003a32:	603b      	str	r3, [r7, #0]
 8003a34:	f04f 30ff 	mov.w	r0, #4294967295
 8003a38:	b01d      	add	sp, #116	@ 0x74
 8003a3a:	e8bd 8ff0 	ldmia.w	sp!, {r4, r5, r6, r7, r8, r9, sl, fp, pc}
 8003a3e:	2340      	movs	r3, #64	@ 0x40
 8003a40:	616b      	str	r3, [r5, #20]
 8003a42:	2300      	movs	r3, #0
 8003a44:	9309      	str	r3, [sp, #36]	@ 0x24
 8003a46:	2320      	movs	r3, #32
 8003a48:	f88d 3029 	strb.w	r3, [sp, #41]	@ 0x29
 8003a4c:	f8cd 800c 	str.w	r8, [sp, #12]
 8003a50:	2330      	movs	r3, #48	@ 0x30
 8003a52:	f8df 819c 	ldr.w	r8, [pc, #412]	@ 8003bf0 <_svfiprintf_r+0x1e4>
 8003a56:	f88d 302a 	strb.w	r3, [sp, #42]	@ 0x2a
 8003a5a:	f04f 0901 	mov.w	r9, #1
 8003a5e:	4623      	mov	r3, r4
 8003a60:	469a      	mov	sl, r3
 8003a62:	f813 2b01 	ldrb.w	r2, [r3], #1
 8003a66:	b10a      	cbz	r2, 8003a6c <_svfiprintf_r+0x60>
 8003a68:	2a25      	cmp	r2, #37	@ 0x25
 8003a6a:	d1f9      	bne.n	8003a60 <_svfiprintf_r+0x54>
 8003a6c:	ebba 0b04 	subs.w	fp, sl, r4
 8003a70:	d00b      	beq.n	8003a8a <_svfiprintf_r+0x7e>
 8003a72:	465b      	mov	r3, fp
 8003a74:	4622      	mov	r2, r4
 8003a76:	4629      	mov	r1, r5
 8003a78:	4638      	mov	r0, r7
 8003a7a:	f7ff ff6b 	bl	8003954 <__ssputs_r>
 8003a7e:	3001      	adds	r0, #1
 8003a80:	f000 80a7 	beq.w	8003bd2 <_svfiprintf_r+0x1c6>
 8003a84:	9a09      	ldr	r2, [sp, #36]	@ 0x24
 8003a86:	445a      	add	r2, fp
 8003a88:	9209      	str	r2, [sp, #36]	@ 0x24
 8003a8a:	f89a 3000 	ldrb.w	r3, [sl]
 8003a8e:	2b00      	cmp	r3, #0
 8003a90:	f000 809f 	beq.w	8003bd2 <_svfiprintf_r+0x1c6>
 8003a94:	2300      	movs	r3, #0
 8003a96:	f04f 32ff 	mov.w	r2, #4294967295
 8003a9a:	e9cd 2305 	strd	r2, r3, [sp, #20]
 8003a9e:	f10a 0a01 	add.w	sl, sl, #1
 8003aa2:	9304      	str	r3, [sp, #16]
 8003aa4:	9307      	str	r3, [sp, #28]
 8003aa6:	f88d 3053 	strb.w	r3, [sp, #83]	@ 0x53
 8003aaa:	931a      	str	r3, [sp, #104]	@ 0x68
 8003aac:	4654      	mov	r4, sl
 8003aae:	2205      	movs	r2, #5
 8003ab0:	f814 1b01 	ldrb.w	r1, [r4], #1
 8003ab4:	484e      	ldr	r0, [pc, #312]	@ (8003bf0 <_svfiprintf_r+0x1e4>)
 8003ab6:	f7fc fb93 	bl	80001e0 <memchr>
 8003aba:	9a04      	ldr	r2, [sp, #16]
 8003abc:	b9d8      	cbnz	r0, 8003af6 <_svfiprintf_r+0xea>
 8003abe:	06d0      	lsls	r0, r2, #27
 8003ac0:	bf44      	itt	mi
 8003ac2:	2320      	movmi	r3, #32
 8003ac4:	f88d 3053 	strbmi.w	r3, [sp, #83]	@ 0x53
 8003ac8:	0711      	lsls	r1, r2, #28
 8003aca:	bf44      	itt	mi
 8003acc:	232b      	movmi	r3, #43	@ 0x2b
 8003ace:	f88d 3053 	strbmi.w	r3, [sp, #83]	@ 0x53
 8003ad2:	f89a 3000 	ldrb.w	r3, [sl]
 8003ad6:	2b2a      	cmp	r3, #42	@ 0x2a
 8003ad8:	d015      	beq.n	8003b06 <_svfiprintf_r+0xfa>
 8003ada:	9a07      	ldr	r2, [sp, #28]
 8003adc:	4654      	mov	r4, sl
 8003ade:	2000      	movs	r0, #0
 8003ae0:	f04f 0c0a 	mov.w	ip, #10
 8003ae4:	4621      	mov	r1, r4
 8003ae6:	f811 3b01 	ldrb.w	r3, [r1], #1
 8003aea:	3b30      	subs	r3, #48	@ 0x30
 8003aec:	2b09      	cmp	r3, #9
 8003aee:	d94b      	bls.n	8003b88 <_svfiprintf_r+0x17c>
 8003af0:	b1b0      	cbz	r0, 8003b20 <_svfiprintf_r+0x114>
 8003af2:	9207      	str	r2, [sp, #28]
 8003af4:	e014      	b.n	8003b20 <_svfiprintf_r+0x114>
 8003af6:	eba0 0308 	sub.w	r3, r0, r8
 8003afa:	fa09 f303 	lsl.w	r3, r9, r3
 8003afe:	4313      	orrs	r3, r2
 8003b00:	9304      	str	r3, [sp, #16]
 8003b02:	46a2      	mov	sl, r4
 8003b04:	e7d2      	b.n	8003aac <_svfiprintf_r+0xa0>
 8003b06:	9b03      	ldr	r3, [sp, #12]
 8003b08:	1d19      	adds	r1, r3, #4
 8003b0a:	681b      	ldr	r3, [r3, #0]
 8003b0c:	9103      	str	r1, [sp, #12]
 8003b0e:	2b00      	cmp	r3, #0
 8003b10:	bfbb      	ittet	lt
 8003b12:	425b      	neglt	r3, r3
 8003b14:	f042 0202 	orrlt.w	r2, r2, #2
 8003b18:	9307      	strge	r3, [sp, #28]
 8003b1a:	9307      	strlt	r3, [sp, #28]
 8003b1c:	bfb8      	it	lt
 8003b1e:	9204      	strlt	r2, [sp, #16]
 8003b20:	7823      	ldrb	r3, [r4, #0]
 8003b22:	2b2e      	cmp	r3, #46	@ 0x2e
 8003b24:	d10a      	bne.n	8003b3c <_svfiprintf_r+0x130>
 8003b26:	7863      	ldrb	r3, [r4, #1]
 8003b28:	2b2a      	cmp	r3, #42	@ 0x2a
 8003b2a:	d132      	bne.n	8003b92 <_svfiprintf_r+0x186>
 8003b2c:	9b03      	ldr	r3, [sp, #12]
 8003b2e:	1d1a      	adds	r2, r3, #4
 8003b30:	681b      	ldr	r3, [r3, #0]
 8003b32:	9203      	str	r2, [sp, #12]
 8003b34:	ea43 73e3 	orr.w	r3, r3, r3, asr #31
 8003b38:	3402      	adds	r4, #2
 8003b3a:	9305      	str	r3, [sp, #20]
 8003b3c:	f8df a0c0 	ldr.w	sl, [pc, #192]	@ 8003c00 <_svfiprintf_r+0x1f4>
 8003b40:	7821      	ldrb	r1, [r4, #0]
 8003b42:	2203      	movs	r2, #3
 8003b44:	4650      	mov	r0, sl
 8003b46:	f7fc fb4b 	bl	80001e0 <memchr>
 8003b4a:	b138      	cbz	r0, 8003b5c <_svfiprintf_r+0x150>
 8003b4c:	9b04      	ldr	r3, [sp, #16]
 8003b4e:	eba0 000a 	sub.w	r0, r0, sl
 8003b52:	2240      	movs	r2, #64	@ 0x40
 8003b54:	4082      	lsls	r2, r0
 8003b56:	4313      	orrs	r3, r2
 8003b58:	3401      	adds	r4, #1
 8003b5a:	9304      	str	r3, [sp, #16]
 8003b5c:	f814 1b01 	ldrb.w	r1, [r4], #1
 8003b60:	4824      	ldr	r0, [pc, #144]	@ (8003bf4 <_svfiprintf_r+0x1e8>)
 8003b62:	f88d 1028 	strb.w	r1, [sp, #40]	@ 0x28
 8003b66:	2206      	movs	r2, #6
 8003b68:	f7fc fb3a 	bl	80001e0 <memchr>
 8003b6c:	2800      	cmp	r0, #0
 8003b6e:	d036      	beq.n	8003bde <_svfiprintf_r+0x1d2>
 8003b70:	4b21      	ldr	r3, [pc, #132]	@ (8003bf8 <_svfiprintf_r+0x1ec>)
 8003b72:	bb1b      	cbnz	r3, 8003bbc <_svfiprintf_r+0x1b0>
 8003b74:	9b03      	ldr	r3, [sp, #12]
 8003b76:	3307      	adds	r3, #7
 8003b78:	f023 0307 	bic.w	r3, r3, #7
 8003b7c:	3308      	adds	r3, #8
 8003b7e:	9303      	str	r3, [sp, #12]
 8003b80:	9b09      	ldr	r3, [sp, #36]	@ 0x24
 8003b82:	4433      	add	r3, r6
 8003b84:	9309      	str	r3, [sp, #36]	@ 0x24
 8003b86:	e76a      	b.n	8003a5e <_svfiprintf_r+0x52>
 8003b88:	fb0c 3202 	mla	r2, ip, r2, r3
 8003b8c:	460c      	mov	r4, r1
 8003b8e:	2001      	movs	r0, #1
 8003b90:	e7a8      	b.n	8003ae4 <_svfiprintf_r+0xd8>
 8003b92:	2300      	movs	r3, #0
 8003b94:	3401      	adds	r4, #1
 8003b96:	9305      	str	r3, [sp, #20]
 8003b98:	4619      	mov	r1, r3
 8003b9a:	f04f 0c0a 	mov.w	ip, #10
 8003b9e:	4620      	mov	r0, r4
 8003ba0:	f810 2b01 	ldrb.w	r2, [r0], #1
 8003ba4:	3a30      	subs	r2, #48	@ 0x30
 8003ba6:	2a09      	cmp	r2, #9
 8003ba8:	d903      	bls.n	8003bb2 <_svfiprintf_r+0x1a6>
 8003baa:	2b00      	cmp	r3, #0
 8003bac:	d0c6      	beq.n	8003b3c <_svfiprintf_r+0x130>
 8003bae:	9105      	str	r1, [sp, #20]
 8003bb0:	e7c4      	b.n	8003b3c <_svfiprintf_r+0x130>
 8003bb2:	fb0c 2101 	mla	r1, ip, r1, r2
 8003bb6:	4604      	mov	r4, r0
 8003bb8:	2301      	movs	r3, #1
 8003bba:	e7f0      	b.n	8003b9e <_svfiprintf_r+0x192>
 8003bbc:	ab03      	add	r3, sp, #12
 8003bbe:	9300      	str	r3, [sp, #0]
 8003bc0:	462a      	mov	r2, r5
 8003bc2:	4b0e      	ldr	r3, [pc, #56]	@ (8003bfc <_svfiprintf_r+0x1f0>)
 8003bc4:	a904      	add	r1, sp, #16
 8003bc6:	4638      	mov	r0, r7
 8003bc8:	f3af 8000 	nop.w
 8003bcc:	1c42      	adds	r2, r0, #1
 8003bce:	4606      	mov	r6, r0
 8003bd0:	d1d6      	bne.n	8003b80 <_svfiprintf_r+0x174>
 8003bd2:	89ab      	ldrh	r3, [r5, #12]
 8003bd4:	065b      	lsls	r3, r3, #25
 8003bd6:	f53f af2d 	bmi.w	8003a34 <_svfiprintf_r+0x28>
 8003bda:	9809      	ldr	r0, [sp, #36]	@ 0x24
 8003bdc:	e72c      	b.n	8003a38 <_svfiprintf_r+0x2c>
 8003bde:	ab03      	add	r3, sp, #12
 8003be0:	9300      	str	r3, [sp, #0]
 8003be2:	462a      	mov	r2, r5
 8003be4:	4b05      	ldr	r3, [pc, #20]	@ (8003bfc <_svfiprintf_r+0x1f0>)
 8003be6:	a904      	add	r1, sp, #16
 8003be8:	4638      	mov	r0, r7
 8003bea:	f000 f879 	bl	8003ce0 <_printf_i>
 8003bee:	e7ed      	b.n	8003bcc <_svfiprintf_r+0x1c0>
 8003bf0:	08004370 	.word	0x08004370
 8003bf4:	0800437a 	.word	0x0800437a
 8003bf8:	00000000 	.word	0x00000000
 8003bfc:	08003955 	.word	0x08003955
 8003c00:	08004376 	.word	0x08004376

08003c04 <_printf_common>:
 8003c04:	e92d 47f0 	stmdb	sp!, {r4, r5, r6, r7, r8, r9, sl, lr}
 8003c08:	4616      	mov	r6, r2
 8003c0a:	4698      	mov	r8, r3
 8003c0c:	688a      	ldr	r2, [r1, #8]
 8003c0e:	690b      	ldr	r3, [r1, #16]
 8003c10:	f8dd 9020 	ldr.w	r9, [sp, #32]
 8003c14:	4293      	cmp	r3, r2
 8003c16:	bfb8      	it	lt
 8003c18:	4613      	movlt	r3, r2
 8003c1a:	6033      	str	r3, [r6, #0]
 8003c1c:	f891 2043 	ldrb.w	r2, [r1, #67]	@ 0x43
 8003c20:	4607      	mov	r7, r0
 8003c22:	460c      	mov	r4, r1
 8003c24:	b10a      	cbz	r2, 8003c2a <_printf_common+0x26>
 8003c26:	3301      	adds	r3, #1
 8003c28:	6033      	str	r3, [r6, #0]
 8003c2a:	6823      	ldr	r3, [r4, #0]
 8003c2c:	0699      	lsls	r1, r3, #26
 8003c2e:	bf42      	ittt	mi
 8003c30:	6833      	ldrmi	r3, [r6, #0]
 8003c32:	3302      	addmi	r3, #2
 8003c34:	6033      	strmi	r3, [r6, #0]
 8003c36:	6825      	ldr	r5, [r4, #0]
 8003c38:	f015 0506 	ands.w	r5, r5, #6
 8003c3c:	d106      	bne.n	8003c4c <_printf_common+0x48>
 8003c3e:	f104 0a19 	add.w	sl, r4, #25
 8003c42:	68e3      	ldr	r3, [r4, #12]
 8003c44:	6832      	ldr	r2, [r6, #0]
 8003c46:	1a9b      	subs	r3, r3, r2
 8003c48:	42ab      	cmp	r3, r5
 8003c4a:	dc26      	bgt.n	8003c9a <_printf_common+0x96>
 8003c4c:	f894 3043 	ldrb.w	r3, [r4, #67]	@ 0x43
 8003c50:	6822      	ldr	r2, [r4, #0]
 8003c52:	3b00      	subs	r3, #0
 8003c54:	bf18      	it	ne
 8003c56:	2301      	movne	r3, #1
 8003c58:	0692      	lsls	r2, r2, #26
 8003c5a:	d42b      	bmi.n	8003cb4 <_printf_common+0xb0>
 8003c5c:	f104 0243 	add.w	r2, r4, #67	@ 0x43
 8003c60:	4641      	mov	r1, r8
 8003c62:	4638      	mov	r0, r7
 8003c64:	47c8      	blx	r9
 8003c66:	3001      	adds	r0, #1
 8003c68:	d01e      	beq.n	8003ca8 <_printf_common+0xa4>
 8003c6a:	6823      	ldr	r3, [r4, #0]
 8003c6c:	6922      	ldr	r2, [r4, #16]
 8003c6e:	f003 0306 	and.w	r3, r3, #6
 8003c72:	2b04      	cmp	r3, #4
 8003c74:	bf02      	ittt	eq
 8003c76:	68e5      	ldreq	r5, [r4, #12]
 8003c78:	6833      	ldreq	r3, [r6, #0]
 8003c7a:	1aed      	subeq	r5, r5, r3
 8003c7c:	68a3      	ldr	r3, [r4, #8]
 8003c7e:	bf0c      	ite	eq
 8003c80:	ea25 75e5 	biceq.w	r5, r5, r5, asr #31
 8003c84:	2500      	movne	r5, #0
 8003c86:	4293      	cmp	r3, r2
 8003c88:	bfc4      	itt	gt
 8003c8a:	1a9b      	subgt	r3, r3, r2
 8003c8c:	18ed      	addgt	r5, r5, r3
 8003c8e:	2600      	movs	r6, #0
 8003c90:	341a      	adds	r4, #26
 8003c92:	42b5      	cmp	r5, r6
 8003c94:	d11a      	bne.n	8003ccc <_printf_common+0xc8>
 8003c96:	2000      	movs	r0, #0
 8003c98:	e008      	b.n	8003cac <_printf_common+0xa8>
 8003c9a:	2301      	movs	r3, #1
 8003c9c:	4652      	mov	r2, sl
 8003c9e:	4641      	mov	r1, r8
 8003ca0:	4638      	mov	r0, r7
 8003ca2:	47c8      	blx	r9
 8003ca4:	3001      	adds	r0, #1
 8003ca6:	d103      	bne.n	8003cb0 <_printf_common+0xac>
 8003ca8:	f04f 30ff 	mov.w	r0, #4294967295
 8003cac:	e8bd 87f0 	ldmia.w	sp!, {r4, r5, r6, r7, r8, r9, sl, pc}
 8003cb0:	3501      	adds	r5, #1
 8003cb2:	e7c6      	b.n	8003c42 <_printf_common+0x3e>
 8003cb4:	18e1      	adds	r1, r4, r3
 8003cb6:	1c5a      	adds	r2, r3, #1
 8003cb8:	2030      	movs	r0, #48	@ 0x30
 8003cba:	f881 0043 	strb.w	r0, [r1, #67]	@ 0x43
 8003cbe:	4422      	add	r2, r4
 8003cc0:	f894 1045 	ldrb.w	r1, [r4, #69]	@ 0x45
 8003cc4:	f882 1043 	strb.w	r1, [r2, #67]	@ 0x43
 8003cc8:	3302      	adds	r3, #2
 8003cca:	e7c7      	b.n	8003c5c <_printf_common+0x58>
 8003ccc:	2301      	movs	r3, #1
 8003cce:	4622      	mov	r2, r4
 8003cd0:	4641      	mov	r1, r8
 8003cd2:	4638      	mov	r0, r7
 8003cd4:	47c8      	blx	r9
 8003cd6:	3001      	adds	r0, #1
 8003cd8:	d0e6      	beq.n	8003ca8 <_printf_common+0xa4>
 8003cda:	3601      	adds	r6, #1
 8003cdc:	e7d9      	b.n	8003c92 <_printf_common+0x8e>
	...

08003ce0 <_printf_i>:
 8003ce0:	e92d 47ff 	stmdb	sp!, {r0, r1, r2, r3, r4, r5, r6, r7, r8, r9, sl, lr}
 8003ce4:	7e0f      	ldrb	r7, [r1, #24]
 8003ce6:	9e0c      	ldr	r6, [sp, #48]	@ 0x30
 8003ce8:	2f78      	cmp	r7, #120	@ 0x78
 8003cea:	4691      	mov	r9, r2
 8003cec:	4680      	mov	r8, r0
 8003cee:	460c      	mov	r4, r1
 8003cf0:	469a      	mov	sl, r3
 8003cf2:	f101 0243 	add.w	r2, r1, #67	@ 0x43
 8003cf6:	d807      	bhi.n	8003d08 <_printf_i+0x28>
 8003cf8:	2f62      	cmp	r7, #98	@ 0x62
 8003cfa:	d80a      	bhi.n	8003d12 <_printf_i+0x32>
 8003cfc:	2f00      	cmp	r7, #0
 8003cfe:	f000 80d2 	beq.w	8003ea6 <_printf_i+0x1c6>
 8003d02:	2f58      	cmp	r7, #88	@ 0x58
 8003d04:	f000 80b9 	beq.w	8003e7a <_printf_i+0x19a>
 8003d08:	f104 0642 	add.w	r6, r4, #66	@ 0x42
 8003d0c:	f884 7042 	strb.w	r7, [r4, #66]	@ 0x42
 8003d10:	e03a      	b.n	8003d88 <_printf_i+0xa8>
 8003d12:	f1a7 0363 	sub.w	r3, r7, #99	@ 0x63
 8003d16:	2b15      	cmp	r3, #21
 8003d18:	d8f6      	bhi.n	8003d08 <_printf_i+0x28>
 8003d1a:	a101      	add	r1, pc, #4	@ (adr r1, 8003d20 <_printf_i+0x40>)
 8003d1c:	f851 f023 	ldr.w	pc, [r1, r3, lsl #2]
 8003d20:	08003d79 	.word	0x08003d79
 8003d24:	08003d8d 	.word	0x08003d8d
 8003d28:	08003d09 	.word	0x08003d09
 8003d2c:	08003d09 	.word	0x08003d09
 8003d30:	08003d09 	.word	0x08003d09
 8003d34:	08003d09 	.word	0x08003d09
 8003d38:	08003d8d 	.word	0x08003d8d
 8003d3c:	08003d09 	.word	0x08003d09
 8003d40:	08003d09 	.word	0x08003d09
 8003d44:	08003d09 	.word	0x08003d09
 8003d48:	08003d09 	.word	0x08003d09
 8003d4c:	08003e8d 	.word	0x08003e8d
 8003d50:	08003db7 	.word	0x08003db7
 8003d54:	08003e47 	.word	0x08003e47
 8003d58:	08003d09 	.word	0x08003d09
 8003d5c:	08003d09 	.word	0x08003d09
 8003d60:	08003eaf 	.word	0x08003eaf
 8003d64:	08003d09 	.word	0x08003d09
 8003d68:	08003db7 	.word	0x08003db7
 8003d6c:	08003d09 	.word	0x08003d09
 8003d70:	08003d09 	.word	0x08003d09
 8003d74:	08003e4f 	.word	0x08003e4f
 8003d78:	6833      	ldr	r3, [r6, #0]
 8003d7a:	1d1a      	adds	r2, r3, #4
 8003d7c:	681b      	ldr	r3, [r3, #0]
 8003d7e:	6032      	str	r2, [r6, #0]
 8003d80:	f104 0642 	add.w	r6, r4, #66	@ 0x42
 8003d84:	f884 3042 	strb.w	r3, [r4, #66]	@ 0x42
 8003d88:	2301      	movs	r3, #1
 8003d8a:	e09d      	b.n	8003ec8 <_printf_i+0x1e8>
 8003d8c:	6833      	ldr	r3, [r6, #0]
 8003d8e:	6820      	ldr	r0, [r4, #0]
 8003d90:	1d19      	adds	r1, r3, #4
 8003d92:	6031      	str	r1, [r6, #0]
 8003d94:	0606      	lsls	r6, r0, #24
 8003d96:	d501      	bpl.n	8003d9c <_printf_i+0xbc>
 8003d98:	681d      	ldr	r5, [r3, #0]
 8003d9a:	e003      	b.n	8003da4 <_printf_i+0xc4>
 8003d9c:	0645      	lsls	r5, r0, #25
 8003d9e:	d5fb      	bpl.n	8003d98 <_printf_i+0xb8>
 8003da0:	f9b3 5000 	ldrsh.w	r5, [r3]
 8003da4:	2d00      	cmp	r5, #0
 8003da6:	da03      	bge.n	8003db0 <_printf_i+0xd0>
 8003da8:	232d      	movs	r3, #45	@ 0x2d
 8003daa:	426d      	negs	r5, r5
 8003dac:	f884 3043 	strb.w	r3, [r4, #67]	@ 0x43
 8003db0:	4859      	ldr	r0, [pc, #356]	@ (8003f18 <_printf_i+0x238>)
 8003db2:	230a      	movs	r3, #10
 8003db4:	e011      	b.n	8003dda <_printf_i+0xfa>
 8003db6:	6821      	ldr	r1, [r4, #0]
 8003db8:	6833      	ldr	r3, [r6, #0]
 8003dba:	0608      	lsls	r0, r1, #24
 8003dbc:	f853 5b04 	ldr.w	r5, [r3], #4
 8003dc0:	d402      	bmi.n	8003dc8 <_printf_i+0xe8>
 8003dc2:	0649      	lsls	r1, r1, #25
 8003dc4:	bf48      	it	mi
 8003dc6:	b2ad      	uxthmi	r5, r5
 8003dc8:	2f6f      	cmp	r7, #111	@ 0x6f
 8003dca:	4853      	ldr	r0, [pc, #332]	@ (8003f18 <_printf_i+0x238>)
 8003dcc:	6033      	str	r3, [r6, #0]
 8003dce:	bf14      	ite	ne
 8003dd0:	230a      	movne	r3, #10
 8003dd2:	2308      	moveq	r3, #8
 8003dd4:	2100      	movs	r1, #0
 8003dd6:	f884 1043 	strb.w	r1, [r4, #67]	@ 0x43
 8003dda:	6866      	ldr	r6, [r4, #4]
 8003ddc:	60a6      	str	r6, [r4, #8]
 8003dde:	2e00      	cmp	r6, #0
 8003de0:	bfa2      	ittt	ge
 8003de2:	6821      	ldrge	r1, [r4, #0]
 8003de4:	f021 0104 	bicge.w	r1, r1, #4
 8003de8:	6021      	strge	r1, [r4, #0]
 8003dea:	b90d      	cbnz	r5, 8003df0 <_printf_i+0x110>
 8003dec:	2e00      	cmp	r6, #0
 8003dee:	d04b      	beq.n	8003e88 <_printf_i+0x1a8>
 8003df0:	4616      	mov	r6, r2
 8003df2:	fbb5 f1f3 	udiv	r1, r5, r3
 8003df6:	fb03 5711 	mls	r7, r3, r1, r5
 8003dfa:	5dc7      	ldrb	r7, [r0, r7]
 8003dfc:	f806 7d01 	strb.w	r7, [r6, #-1]!
 8003e00:	462f      	mov	r7, r5
 8003e02:	42bb      	cmp	r3, r7
 8003e04:	460d      	mov	r5, r1
 8003e06:	d9f4      	bls.n	8003df2 <_printf_i+0x112>
 8003e08:	2b08      	cmp	r3, #8
 8003e0a:	d10b      	bne.n	8003e24 <_printf_i+0x144>
 8003e0c:	6823      	ldr	r3, [r4, #0]
 8003e0e:	07df      	lsls	r7, r3, #31
 8003e10:	d508      	bpl.n	8003e24 <_printf_i+0x144>
 8003e12:	6923      	ldr	r3, [r4, #16]
 8003e14:	6861      	ldr	r1, [r4, #4]
 8003e16:	4299      	cmp	r1, r3
 8003e18:	bfde      	ittt	le
 8003e1a:	2330      	movle	r3, #48	@ 0x30
 8003e1c:	f806 3c01 	strble.w	r3, [r6, #-1]
 8003e20:	f106 36ff 	addle.w	r6, r6, #4294967295
 8003e24:	1b92      	subs	r2, r2, r6
 8003e26:	6122      	str	r2, [r4, #16]
 8003e28:	f8cd a000 	str.w	sl, [sp]
 8003e2c:	464b      	mov	r3, r9
 8003e2e:	aa03      	add	r2, sp, #12
 8003e30:	4621      	mov	r1, r4
 8003e32:	4640      	mov	r0, r8
 8003e34:	f7ff fee6 	bl	8003c04 <_printf_common>
 8003e38:	3001      	adds	r0, #1
 8003e3a:	d14a      	bne.n	8003ed2 <_printf_i+0x1f2>
 8003e3c:	f04f 30ff 	mov.w	r0, #4294967295
 8003e40:	b004      	add	sp, #16
 8003e42:	e8bd 87f0 	ldmia.w	sp!, {r4, r5, r6, r7, r8, r9, sl, pc}
 8003e46:	6823      	ldr	r3, [r4, #0]
 8003e48:	f043 0320 	orr.w	r3, r3, #32
 8003e4c:	6023      	str	r3, [r4, #0]
 8003e4e:	4833      	ldr	r0, [pc, #204]	@ (8003f1c <_printf_i+0x23c>)
 8003e50:	2778      	movs	r7, #120	@ 0x78
 8003e52:	f884 7045 	strb.w	r7, [r4, #69]	@ 0x45
 8003e56:	6823      	ldr	r3, [r4, #0]
 8003e58:	6831      	ldr	r1, [r6, #0]
 8003e5a:	061f      	lsls	r7, r3, #24
 8003e5c:	f851 5b04 	ldr.w	r5, [r1], #4
 8003e60:	d402      	bmi.n	8003e68 <_printf_i+0x188>
 8003e62:	065f      	lsls	r7, r3, #25
 8003e64:	bf48      	it	mi
 8003e66:	b2ad      	uxthmi	r5, r5
 8003e68:	6031      	str	r1, [r6, #0]
 8003e6a:	07d9      	lsls	r1, r3, #31
 8003e6c:	bf44      	itt	mi
 8003e6e:	f043 0320 	orrmi.w	r3, r3, #32
 8003e72:	6023      	strmi	r3, [r4, #0]
 8003e74:	b11d      	cbz	r5, 8003e7e <_printf_i+0x19e>
 8003e76:	2310      	movs	r3, #16
 8003e78:	e7ac      	b.n	8003dd4 <_printf_i+0xf4>
 8003e7a:	4827      	ldr	r0, [pc, #156]	@ (8003f18 <_printf_i+0x238>)
 8003e7c:	e7e9      	b.n	8003e52 <_printf_i+0x172>
 8003e7e:	6823      	ldr	r3, [r4, #0]
 8003e80:	f023 0320 	bic.w	r3, r3, #32
 8003e84:	6023      	str	r3, [r4, #0]
 8003e86:	e7f6      	b.n	8003e76 <_printf_i+0x196>
 8003e88:	4616      	mov	r6, r2
 8003e8a:	e7bd      	b.n	8003e08 <_printf_i+0x128>
 8003e8c:	6833      	ldr	r3, [r6, #0]
 8003e8e:	6825      	ldr	r5, [r4, #0]
 8003e90:	6961      	ldr	r1, [r4, #20]
 8003e92:	1d18      	adds	r0, r3, #4
 8003e94:	6030      	str	r0, [r6, #0]
 8003e96:	062e      	lsls	r6, r5, #24
 8003e98:	681b      	ldr	r3, [r3, #0]
 8003e9a:	d501      	bpl.n	8003ea0 <_printf_i+0x1c0>
 8003e9c:	6019      	str	r1, [r3, #0]
 8003e9e:	e002      	b.n	8003ea6 <_printf_i+0x1c6>
 8003ea0:	0668      	lsls	r0, r5, #25
 8003ea2:	d5fb      	bpl.n	8003e9c <_printf_i+0x1bc>
 8003ea4:	8019      	strh	r1, [r3, #0]
 8003ea6:	2300      	movs	r3, #0
 8003ea8:	6123      	str	r3, [r4, #16]
 8003eaa:	4616      	mov	r6, r2
 8003eac:	e7bc      	b.n	8003e28 <_printf_i+0x148>
 8003eae:	6833      	ldr	r3, [r6, #0]
 8003eb0:	1d1a      	adds	r2, r3, #4
 8003eb2:	6032      	str	r2, [r6, #0]
 8003eb4:	681e      	ldr	r6, [r3, #0]
 8003eb6:	6862      	ldr	r2, [r4, #4]
 8003eb8:	2100      	movs	r1, #0
 8003eba:	4630      	mov	r0, r6
 8003ebc:	f7fc f990 	bl	80001e0 <memchr>
 8003ec0:	b108      	cbz	r0, 8003ec6 <_printf_i+0x1e6>
 8003ec2:	1b80      	subs	r0, r0, r6
 8003ec4:	6060      	str	r0, [r4, #4]
 8003ec6:	6863      	ldr	r3, [r4, #4]
 8003ec8:	6123      	str	r3, [r4, #16]
 8003eca:	2300      	movs	r3, #0
 8003ecc:	f884 3043 	strb.w	r3, [r4, #67]	@ 0x43
 8003ed0:	e7aa      	b.n	8003e28 <_printf_i+0x148>
 8003ed2:	6923      	ldr	r3, [r4, #16]
 8003ed4:	4632      	mov	r2, r6
 8003ed6:	4649      	mov	r1, r9
 8003ed8:	4640      	mov	r0, r8
 8003eda:	47d0      	blx	sl
 8003edc:	3001      	adds	r0, #1
 8003ede:	d0ad      	beq.n	8003e3c <_printf_i+0x15c>
 8003ee0:	6823      	ldr	r3, [r4, #0]
 8003ee2:	079b      	lsls	r3, r3, #30
 8003ee4:	d413      	bmi.n	8003f0e <_printf_i+0x22e>
 8003ee6:	68e0      	ldr	r0, [r4, #12]
 8003ee8:	9b03      	ldr	r3, [sp, #12]
 8003eea:	4298      	cmp	r0, r3
 8003eec:	bfb8      	it	lt
 8003eee:	4618      	movlt	r0, r3
 8003ef0:	e7a6      	b.n	8003e40 <_printf_i+0x160>
 8003ef2:	2301      	movs	r3, #1
 8003ef4:	4632      	mov	r2, r6
 8003ef6:	4649      	mov	r1, r9
 8003ef8:	4640      	mov	r0, r8
 8003efa:	47d0      	blx	sl
 8003efc:	3001      	adds	r0, #1
 8003efe:	d09d      	beq.n	8003e3c <_printf_i+0x15c>
 8003f00:	3501      	adds	r5, #1
 8003f02:	68e3      	ldr	r3, [r4, #12]
 8003f04:	9903      	ldr	r1, [sp, #12]
 8003f06:	1a5b      	subs	r3, r3, r1
 8003f08:	42ab      	cmp	r3, r5
 8003f0a:	dcf2      	bgt.n	8003ef2 <_printf_i+0x212>
 8003f0c:	e7eb      	b.n	8003ee6 <_printf_i+0x206>
 8003f0e:	2500      	movs	r5, #0
 8003f10:	f104 0619 	add.w	r6, r4, #25
 8003f14:	e7f5      	b.n	8003f02 <_printf_i+0x222>
 8003f16:	bf00      	nop
 8003f18:	08004381 	.word	0x08004381
 8003f1c:	08004392 	.word	0x08004392

08003f20 <memmove>:
 8003f20:	4288      	cmp	r0, r1
 8003f22:	b510      	push	{r4, lr}
 8003f24:	eb01 0402 	add.w	r4, r1, r2
 8003f28:	d902      	bls.n	8003f30 <memmove+0x10>
 8003f2a:	4284      	cmp	r4, r0
 8003f2c:	4623      	mov	r3, r4
 8003f2e:	d807      	bhi.n	8003f40 <memmove+0x20>
 8003f30:	1e43      	subs	r3, r0, #1
 8003f32:	42a1      	cmp	r1, r4
 8003f34:	d008      	beq.n	8003f48 <memmove+0x28>
 8003f36:	f811 2b01 	ldrb.w	r2, [r1], #1
 8003f3a:	f803 2f01 	strb.w	r2, [r3, #1]!
 8003f3e:	e7f8      	b.n	8003f32 <memmove+0x12>
 8003f40:	4402      	add	r2, r0
 8003f42:	4601      	mov	r1, r0
 8003f44:	428a      	cmp	r2, r1
 8003f46:	d100      	bne.n	8003f4a <memmove+0x2a>
 8003f48:	bd10      	pop	{r4, pc}
 8003f4a:	f813 4d01 	ldrb.w	r4, [r3, #-1]!
 8003f4e:	f802 4d01 	strb.w	r4, [r2, #-1]!
 8003f52:	e7f7      	b.n	8003f44 <memmove+0x24>

08003f54 <_sbrk_r>:
 8003f54:	b538      	push	{r3, r4, r5, lr}
 8003f56:	4d06      	ldr	r5, [pc, #24]	@ (8003f70 <_sbrk_r+0x1c>)
 8003f58:	2300      	movs	r3, #0
 8003f5a:	4604      	mov	r4, r0
 8003f5c:	4608      	mov	r0, r1
 8003f5e:	602b      	str	r3, [r5, #0]
 8003f60:	f7ff fb42 	bl	80035e8 <_sbrk>
 8003f64:	1c43      	adds	r3, r0, #1
 8003f66:	d102      	bne.n	8003f6e <_sbrk_r+0x1a>
 8003f68:	682b      	ldr	r3, [r5, #0]
 8003f6a:	b103      	cbz	r3, 8003f6e <_sbrk_r+0x1a>
 8003f6c:	6023      	str	r3, [r4, #0]
 8003f6e:	bd38      	pop	{r3, r4, r5, pc}
 8003f70:	20000364 	.word	0x20000364

08003f74 <memcpy>:
 8003f74:	440a      	add	r2, r1
 8003f76:	4291      	cmp	r1, r2
 8003f78:	f100 33ff 	add.w	r3, r0, #4294967295
 8003f7c:	d100      	bne.n	8003f80 <memcpy+0xc>
 8003f7e:	4770      	bx	lr
 8003f80:	b510      	push	{r4, lr}
 8003f82:	f811 4b01 	ldrb.w	r4, [r1], #1
 8003f86:	f803 4f01 	strb.w	r4, [r3, #1]!
 8003f8a:	4291      	cmp	r1, r2
 8003f8c:	d1f9      	bne.n	8003f82 <memcpy+0xe>
 8003f8e:	bd10      	pop	{r4, pc}

08003f90 <_realloc_r>:
 8003f90:	e92d 41f0 	stmdb	sp!, {r4, r5, r6, r7, r8, lr}
 8003f94:	4680      	mov	r8, r0
 8003f96:	4615      	mov	r5, r2
 8003f98:	460c      	mov	r4, r1
 8003f9a:	b921      	cbnz	r1, 8003fa6 <_realloc_r+0x16>
 8003f9c:	e8bd 41f0 	ldmia.w	sp!, {r4, r5, r6, r7, r8, lr}
 8003fa0:	4611      	mov	r1, r2
 8003fa2:	f7ff bc4b 	b.w	800383c <_malloc_r>
 8003fa6:	b92a      	cbnz	r2, 8003fb4 <_realloc_r+0x24>
 8003fa8:	f7ff fbdc 	bl	8003764 <_free_r>
 8003fac:	2400      	movs	r4, #0
 8003fae:	4620      	mov	r0, r4
 8003fb0:	e8bd 81f0 	ldmia.w	sp!, {r4, r5, r6, r7, r8, pc}
 8003fb4:	f000 f81a 	bl	8003fec <_malloc_usable_size_r>
 8003fb8:	4285      	cmp	r5, r0
 8003fba:	4606      	mov	r6, r0
 8003fbc:	d802      	bhi.n	8003fc4 <_realloc_r+0x34>
 8003fbe:	ebb5 0f50 	cmp.w	r5, r0, lsr #1
 8003fc2:	d8f4      	bhi.n	8003fae <_realloc_r+0x1e>
 8003fc4:	4629      	mov	r1, r5
 8003fc6:	4640      	mov	r0, r8
 8003fc8:	f7ff fc38 	bl	800383c <_malloc_r>
 8003fcc:	4607      	mov	r7, r0
 8003fce:	2800      	cmp	r0, #0
 8003fd0:	d0ec      	beq.n	8003fac <_realloc_r+0x1c>
 8003fd2:	42b5      	cmp	r5, r6
 8003fd4:	462a      	mov	r2, r5
 8003fd6:	4621      	mov	r1, r4
 8003fd8:	bf28      	it	cs
 8003fda:	4632      	movcs	r2, r6
 8003fdc:	f7ff ffca 	bl	8003f74 <memcpy>
 8003fe0:	4621      	mov	r1, r4
 8003fe2:	4640      	mov	r0, r8
 8003fe4:	f7ff fbbe 	bl	8003764 <_free_r>
 8003fe8:	463c      	mov	r4, r7
 8003fea:	e7e0      	b.n	8003fae <_realloc_r+0x1e>

08003fec <_malloc_usable_size_r>:
 8003fec:	f851 3c04 	ldr.w	r3, [r1, #-4]
 8003ff0:	1f18      	subs	r0, r3, #4
 8003ff2:	2b00      	cmp	r3, #0
 8003ff4:	bfbc      	itt	lt
 8003ff6:	580b      	ldrlt	r3, [r1, r0]
 8003ff8:	18c0      	addlt	r0, r0, r3
 8003ffa:	4770      	bx	lr

08003ffc <_init>:
 8003ffc:	b5f8      	push	{r3, r4, r5, r6, r7, lr}
 8003ffe:	bf00      	nop
 8004000:	bcf8      	pop	{r3, r4, r5, r6, r7}
 8004002:	bc08      	pop	{r3}
 8004004:	469e      	mov	lr, r3
 8004006:	4770      	bx	lr

08004008 <_fini>:
 8004008:	b5f8      	push	{r3, r4, r5, r6, r7, lr}
 800400a:	bf00      	nop
 800400c:	bcf8      	pop	{r3, r4, r5, r6, r7}
 800400e:	bc08      	pop	{r3}
 8004010:	469e      	mov	lr, r3
 8004012:	4770      	bx	lr
